Archive member included because of file (symbol)

c:/devkitPro/libnds/lib\libfat.a(libfat.o)
                              template.o (fatInitDefault)
c:/devkitPro/libnds/lib\libfat.a(partition.o)
                              c:/devkitPro/libnds/lib\libfat.a(libfat.o) (_FAT_partition_constructor)
c:/devkitPro/libnds/lib\libfat.a(cache.o)
                              c:/devkitPro/libnds/lib\libfat.a(partition.o) (_FAT_cache_constructor)
c:/devkitPro/libnds/lib\libfat.a(directory.o)
                              c:/devkitPro/libnds/lib\libfat.a(libfat.o) (_FAT_directory_getVolumeLabel)
c:/devkitPro/libnds/lib\libfat.a(disc.o)
                              c:/devkitPro/libnds/lib\libfat.a(libfat.o) (_FAT_disc_interfaces)
c:/devkitPro/libnds/lib\libfat.a(fatdir.o)
                              c:/devkitPro/libnds/lib\libfat.a(libfat.o) (_FAT_stat_r)
c:/devkitPro/libnds/lib\libfat.a(fatfile.o)
                              c:/devkitPro/libnds/lib\libfat.a(libfat.o) (_FAT_open_r)
c:/devkitPro/libnds/lib\libfat.a(file_allocation_table.o)
                              c:/devkitPro/libnds/lib\libfat.a(directory.o) (_FAT_fat_nextCluster)
c:/devkitPro/libnds/lib\libfat.a(filetime.o)
                              c:/devkitPro/libnds/lib\libfat.a(fatdir.o) (_FAT_filetime_getTimeFromRTC)
c:/devkitPro/libnds/lib\libfat.a(lock.o)
                              c:/devkitPro/libnds/lib\libfat.a(partition.o) (_FAT_lock_init)
c:/devkitPro/libnds/lib\libnds9.a(background.o)
                              template.o (bgUpdate)
c:/devkitPro/libnds/lib\libnds9.a(console.o)
                              template.o (consoleInit)
c:/devkitPro/libnds/lib\libnds9.a(gurumeditation.o)
                              template.o (defaultExceptionHandler)
c:/devkitPro/libnds/lib\libnds9.a(keys.o)
                              I_IBM.o (scanKeys)
c:/devkitPro/libnds/lib\libnds9.a(sassert.o)
                              template.o (__sassert)
c:/devkitPro/libnds/lib\libnds9.a(sound.o)
                              template.o (soundEnable)
c:/devkitPro/libnds/lib\libnds9.a(touch.o)
                              I_IBM.o (touchRead)
c:/devkitPro/libnds/lib\libnds9.a(trig.o)
                              ds_render.o (sinLerp)
c:/devkitPro/libnds/lib\libnds9.a(video.o)
                              template.o (vramSetMainBanks)
c:/devkitPro/libnds/lib\libnds9.a(videoGL.o)
                              ds_render.o (glGlobalData)
c:/devkitPro/libnds/lib\libnds9.a(dldi.o)
                              c:/devkitPro/libnds/lib\libfat.a(disc.o) (dldiGetInternal)
c:/devkitPro/libnds/lib\libnds9.a(dsi_sd.o)
                              c:/devkitPro/libnds/lib\libfat.a(disc.o) (__io_dsisd)
c:/devkitPro/libnds/lib\libnds9.a(initSystem.o)
                              c:/devkitpro/devkitarm/bin/../lib/gcc/arm-eabi/4.5.1/../../../../arm-eabi/lib/thumb/ds_arm9_crt0.o (initSystem)
c:/devkitPro/libnds/lib\libnds9.a(fifosystem.o)
                              c:/devkitPro/libnds/lib\libnds9.a(sound.o) (fifoSendValue32)
c:/devkitPro/libnds/lib\libnds9.a(interrupts.o)
                              c:/devkitPro/libnds/lib\libnds9.a(fifosystem.o) (irqSet)
c:/devkitPro/libnds/lib\libnds9.a(libnds_exit.o)
                              c:/devkitpro/devkitarm/bin/../lib/gcc/arm-eabi/4.5.1/../../../../arm-eabi/lib/thumb/ds_arm9_crt0.o (__libnds_exit)
c:/devkitPro/libnds/lib\libnds9.a(dcache.o)
                              I_IBM.o (DC_FlushAll)
c:/devkitPro/libnds/lib\libnds9.a(exceptionHandler.o)
                              c:/devkitPro/libnds/lib\libnds9.a(gurumeditation.o) (getCPSR)
c:/devkitPro/libnds/lib\libnds9.a(dldi_stub.o)
                              c:/devkitPro/libnds/lib\libnds9.a(dldi.o) (_io_dldi_stub)
c:/devkitPro/libnds/lib\libnds9.a(mpu_setup.o)
                              c:/devkitpro/devkitarm/bin/../lib/gcc/arm-eabi/4.5.1/../../../../arm-eabi/lib/thumb/ds_arm9_crt0.o (__libnds_mpu_setup)
c:/devkitPro/libnds/lib\libnds9.a(biosCalls.o)
                              c:/devkitPro/libnds/lib\libnds9.a(fifosystem.o) (swiIntrWait)
c:/devkitPro/libnds/lib\libnds9.a(debugprint.o)
                              c:/devkitPro/libnds/lib\libnds9.a(console.o) (nocashWrite)
c:/devkitPro/libnds/lib\libnds9.a(interruptDispatcher.o)
                              c:/devkitPro/libnds/lib\libnds9.a(interrupts.o) (IntrMain)
c:/devkitPro/libnds/lib\libnds9.a(swiSoftReset.o)
                              c:/devkitPro/libnds/lib\libnds9.a(fifosystem.o) (swiSoftReset)
c:/devkitPro/libnds/lib\libnds9.a(default_font.bin.o)
                              c:/devkitPro/libnds/lib\libnds9.a(console.o) (default_font_bin)
c:/devkitPro/libnds/lib\libnds9.a(dynamicArray.o)
                              c:/devkitPro/libnds/lib\libnds9.a(videoGL.o) (DynamicArrayInit)
c:/devkitPro/libnds/lib\libnds9.a(exceptions.o)
                              c:/devkitPro/libnds/lib\libnds9.a(gurumeditation.o) (setExceptionHandler)
c:/devkitPro/libnds/lib\libnds9.a(system.o)
                              c:/devkitPro/libnds/lib\libnds9.a(initSystem.o) (systemMsgHandler)
c:/devkitpro/devkitarm/bin/../lib/gcc/arm-eabi/4.5.1/../../../../arm-eabi/lib/thumb\libm.a(lib_a-s_ceil.o)
                              ds_render.o (ceil)
c:/devkitpro/devkitarm/bin/../lib/gcc/arm-eabi/4.5.1/../../../../arm-eabi/lib/thumb\libm.a(lib_a-s_cos.o)
                              ds_render.o (cos)
c:/devkitpro/devkitarm/bin/../lib/gcc/arm-eabi/4.5.1/../../../../arm-eabi/lib/thumb\libm.a(lib_a-s_floor.o)
                              ds_render.o (floor)
c:/devkitpro/devkitarm/bin/../lib/gcc/arm-eabi/4.5.1/../../../../arm-eabi/lib/thumb\libm.a(lib_a-s_sin.o)
                              ds_render.o (sin)
c:/devkitpro/devkitarm/bin/../lib/gcc/arm-eabi/4.5.1/../../../../arm-eabi/lib/thumb\libm.a(lib_a-s_tan.o)
                              ds_render.o (tan)
c:/devkitpro/devkitarm/bin/../lib/gcc/arm-eabi/4.5.1/../../../../arm-eabi/lib/thumb\libm.a(lib_a-w_sqrt.o)
                              glMain.o (sqrt)
c:/devkitpro/devkitarm/bin/../lib/gcc/arm-eabi/4.5.1/../../../../arm-eabi/lib/thumb\libm.a(lib_a-e_rem_pio2.o)
                              c:/devkitpro/devkitarm/bin/../lib/gcc/arm-eabi/4.5.1/../../../../arm-eabi/lib/thumb\libm.a(lib_a-s_cos.o) (__ieee754_rem_pio2)
c:/devkitpro/devkitarm/bin/../lib/gcc/arm-eabi/4.5.1/../../../../arm-eabi/lib/thumb\libm.a(lib_a-e_sqrt.o)
                              c:/devkitpro/devkitarm/bin/../lib/gcc/arm-eabi/4.5.1/../../../../arm-eabi/lib/thumb\libm.a(lib_a-w_sqrt.o) (__ieee754_sqrt)
c:/devkitpro/devkitarm/bin/../lib/gcc/arm-eabi/4.5.1/../../../../arm-eabi/lib/thumb\libm.a(lib_a-k_cos.o)
                              c:/devkitpro/devkitarm/bin/../lib/gcc/arm-eabi/4.5.1/../../../../arm-eabi/lib/thumb\libm.a(lib_a-s_cos.o) (__kernel_cos)
c:/devkitpro/devkitarm/bin/../lib/gcc/arm-eabi/4.5.1/../../../../arm-eabi/lib/thumb\libm.a(lib_a-k_rem_pio2.o)
                              c:/devkitpro/devkitarm/bin/../lib/gcc/arm-eabi/4.5.1/../../../../arm-eabi/lib/thumb\libm.a(lib_a-e_rem_pio2.o) (__kernel_rem_pio2)
c:/devkitpro/devkitarm/bin/../lib/gcc/arm-eabi/4.5.1/../../../../arm-eabi/lib/thumb\libm.a(lib_a-k_sin.o)
                              c:/devkitpro/devkitarm/bin/../lib/gcc/arm-eabi/4.5.1/../../../../arm-eabi/lib/thumb\libm.a(lib_a-s_cos.o) (__kernel_sin)
c:/devkitpro/devkitarm/bin/../lib/gcc/arm-eabi/4.5.1/../../../../arm-eabi/lib/thumb\libm.a(lib_a-k_tan.o)
                              c:/devkitpro/devkitarm/bin/../lib/gcc/arm-eabi/4.5.1/../../../../arm-eabi/lib/thumb\libm.a(lib_a-s_tan.o) (__kernel_tan)
c:/devkitpro/devkitarm/bin/../lib/gcc/arm-eabi/4.5.1/../../../../arm-eabi/lib/thumb\libm.a(lib_a-s_fabs.o)
                              c:/devkitpro/devkitarm/bin/../lib/gcc/arm-eabi/4.5.1/../../../../arm-eabi/lib/thumb\libm.a(lib_a-e_rem_pio2.o) (fabs)
c:/devkitpro/devkitarm/bin/../lib/gcc/arm-eabi/4.5.1/../../../../arm-eabi/lib/thumb\libm.a(lib_a-s_fpclassify.o)
                              c:/devkitpro/devkitarm/bin/../lib/gcc/arm-eabi/4.5.1/../../../../arm-eabi/lib/thumb\libm.a(lib_a-w_sqrt.o) (__fpclassifyd)
c:/devkitpro/devkitarm/bin/../lib/gcc/arm-eabi/4.5.1/../../../../arm-eabi/lib/thumb\libm.a(lib_a-s_lib_ver.o)
                              c:/devkitpro/devkitarm/bin/../lib/gcc/arm-eabi/4.5.1/../../../../arm-eabi/lib/thumb\libm.a(lib_a-w_sqrt.o) (__fdlib_version)
c:/devkitpro/devkitarm/bin/../lib/gcc/arm-eabi/4.5.1/../../../../arm-eabi/lib/thumb\libm.a(lib_a-s_matherr.o)
                              c:/devkitpro/devkitarm/bin/../lib/gcc/arm-eabi/4.5.1/../../../../arm-eabi/lib/thumb\libm.a(lib_a-w_sqrt.o) (matherr)
c:/devkitpro/devkitarm/bin/../lib/gcc/arm-eabi/4.5.1/../../../../arm-eabi/lib/thumb\libm.a(lib_a-s_scalbn.o)
                              c:/devkitpro/devkitarm/bin/../lib/gcc/arm-eabi/4.5.1/../../../../arm-eabi/lib/thumb\libm.a(lib_a-k_rem_pio2.o) (scalbn)
c:/devkitpro/devkitarm/bin/../lib/gcc/arm-eabi/4.5.1/../../../../arm-eabi/lib/thumb\libm.a(lib_a-s_copysign.o)
                              c:/devkitpro/devkitarm/bin/../lib/gcc/arm-eabi/4.5.1/../../../../arm-eabi/lib/thumb\libm.a(lib_a-s_scalbn.o) (copysign)
c:/devkitpro/devkitarm/bin/../lib/gcc/arm-eabi/4.5.1/thumb\libgcc.a(_udivsi3.o)
                              AM_MAP.o (__aeabi_uidiv)
c:/devkitpro/devkitarm/bin/../lib/gcc/arm-eabi/4.5.1/thumb\libgcc.a(_divsi3.o)
                              ds_render.o (__aeabi_idiv)
c:/devkitpro/devkitarm/bin/../lib/gcc/arm-eabi/4.5.1/thumb\libgcc.a(_dvmd_tls.o)
                              c:/devkitpro/devkitarm/bin/../lib/gcc/arm-eabi/4.5.1/thumb\libgcc.a(_udivsi3.o) (__aeabi_idiv0)
c:/devkitpro/devkitarm/bin/../lib/gcc/arm-eabi/4.5.1/thumb\libgcc.a(_arm_addsubdf3.o)
                              c:/devkitpro/devkitarm/bin/../lib/gcc/arm-eabi/4.5.1/../../../../arm-eabi/lib/thumb\libm.a(lib_a-s_cos.o) (__aeabi_dsub)
c:/devkitpro/devkitarm/bin/../lib/gcc/arm-eabi/4.5.1/thumb\libgcc.a(_arm_muldivdf3.o)
                              ds_render.o (__aeabi_dmul)
c:/devkitpro/devkitarm/bin/../lib/gcc/arm-eabi/4.5.1/thumb\libgcc.a(_arm_cmpdf2.o)
                              c:/devkitpro/devkitarm/bin/../lib/gcc/arm-eabi/4.5.1/../../../../arm-eabi/lib/thumb\libm.a(lib_a-e_rem_pio2.o) (__aeabi_dcmpeq)
c:/devkitpro/devkitarm/bin/../lib/gcc/arm-eabi/4.5.1/thumb\libgcc.a(_arm_fixdfsi.o)
                              ds_render.o (__aeabi_d2iz)
c:/devkitpro/devkitarm/bin/../lib/gcc/arm-eabi/4.5.1/thumb\libgcc.a(_arm_truncdfsf2.o)
                              ds_render.o (__aeabi_d2f)
c:/devkitpro/devkitarm/bin/../lib/gcc/arm-eabi/4.5.1/thumb\libgcc.a(_arm_addsubsf3.o)
                              ds_render.o (__aeabi_fsub)
c:/devkitpro/devkitarm/bin/../lib/gcc/arm-eabi/4.5.1/thumb\libgcc.a(_arm_muldivsf3.o)
                              ds_render.o (__aeabi_fmul)
c:/devkitpro/devkitarm/bin/../lib/gcc/arm-eabi/4.5.1/thumb\libgcc.a(_arm_cmpsf2.o)
                              glMain.o (__aeabi_fcmpeq)
c:/devkitpro/devkitarm/bin/../lib/gcc/arm-eabi/4.5.1/thumb\libgcc.a(_arm_fixsfsi.o)
                              ds_render.o (__aeabi_f2iz)
c:/devkitpro/devkitarm/bin/../lib/gcc/arm-eabi/4.5.1/thumb\libgcc.a(_arm_fixunssfsi.o)
                              template.o (__aeabi_f2uiz)
c:/devkitpro/devkitarm/bin/../lib/gcc/arm-eabi/4.5.1/thumb\libgcc.a(_aeabi_ldivmod.o)
                              P_SETUP.o (__aeabi_ldivmod)
c:/devkitpro/devkitarm/bin/../lib/gcc/arm-eabi/4.5.1/thumb\libgcc.a(_muldi3.o)
                              ds_render.o (__aeabi_lmul)
c:/devkitpro/devkitarm/bin/../lib/gcc/arm-eabi/4.5.1/thumb\libgcc.a(bpabi.o)
                              c:/devkitpro/devkitarm/bin/../lib/gcc/arm-eabi/4.5.1/thumb\libgcc.a(_aeabi_ldivmod.o) (__gnu_ldivmod_helper)
c:/devkitpro/devkitarm/bin/../lib/gcc/arm-eabi/4.5.1/thumb\libgcc.a(unwind-arm.o)
                              c:/devkitpro/devkitarm/bin/../lib/gcc/arm-eabi/4.5.1/thumb\libgcc.a(bpabi.o) (__aeabi_unwind_cpp_pr0)
c:/devkitpro/devkitarm/bin/../lib/gcc/arm-eabi/4.5.1/thumb\libgcc.a(libunwind.o)
                              c:/devkitpro/devkitarm/bin/../lib/gcc/arm-eabi/4.5.1/thumb\libgcc.a(unwind-arm.o) (restore_core_regs)
c:/devkitpro/devkitarm/bin/../lib/gcc/arm-eabi/4.5.1/thumb\libgcc.a(pr-support.o)
                              c:/devkitpro/devkitarm/bin/../lib/gcc/arm-eabi/4.5.1/thumb\libgcc.a(unwind-arm.o) (__gnu_unwind_execute)
c:/devkitpro/devkitarm/bin/../lib/gcc/arm-eabi/4.5.1/thumb\libgcc.a(_divdi3.o)
                              c:/devkitpro/devkitarm/bin/../lib/gcc/arm-eabi/4.5.1/thumb\libgcc.a(bpabi.o) (__divdi3)
c:/devkitpro/devkitarm/bin/../lib/gcc/arm-eabi/4.5.1/thumb\libgcc.a(_udivdi3.o)
                              c:/devkitpro/devkitarm/bin/../lib/gcc/arm-eabi/4.5.1/thumb\libgcc.a(bpabi.o) (__udivdi3)
c:/devkitpro/devkitarm/bin/../lib/gcc/arm-eabi/4.5.1/thumb\libgcc.a(_clzsi2.o)
                              c:/devkitpro/devkitarm/bin/../lib/gcc/arm-eabi/4.5.1/thumb\libgcc.a(_divdi3.o) (__clzsi2)
c:/devkitpro/devkitarm/bin/../lib/gcc/arm-eabi/4.5.1/../../../../arm-eabi/lib/thumb\libg.a(lib_a-abort.o)
                              c:/devkitpro/devkitarm/bin/../lib/gcc/arm-eabi/4.5.1/thumb\libgcc.a(unwind-arm.o) (abort)
c:/devkitpro/devkitarm/bin/../lib/gcc/arm-eabi/4.5.1/../../../../arm-eabi/lib/thumb\libg.a(lib_a-access.o)
                              M_MISC.o (access)
c:/devkitpro/devkitarm/bin/../lib/gcc/arm-eabi/4.5.1/../../../../arm-eabi/lib/thumb\libg.a(lib_a-atoi.o)
                              P_SETUP.o (atoi)
c:/devkitpro/devkitarm/bin/../lib/gcc/arm-eabi/4.5.1/../../../../arm-eabi/lib/thumb\libg.a(lib_a-bsearch.o)
                              c:/devkitPro/libnds/lib\libnds9.a(trig.o) (bsearch)
c:/devkitpro/devkitarm/bin/../lib/gcc/arm-eabi/4.5.1/../../../../arm-eabi/lib/thumb\libg.a(lib_a-calloc.o)
                              P_SETUP.o (calloc)
c:/devkitpro/devkitarm/bin/../lib/gcc/arm-eabi/4.5.1/../../../../arm-eabi/lib/thumb\libg.a(lib_a-callocr.o)
                              c:/devkitpro/devkitarm/bin/../lib/gcc/arm-eabi/4.5.1/../../../../arm-eabi/lib/thumb\libg.a(lib_a-calloc.o) (_calloc_r)
c:/devkitpro/devkitarm/bin/../lib/gcc/arm-eabi/4.5.1/../../../../arm-eabi/lib/thumb\libg.a(lib_a-ctype_.o)
                              CT_CHAT.o (__ctype_ptr__)
c:/devkitpro/devkitarm/bin/../lib/gcc/arm-eabi/4.5.1/../../../../arm-eabi/lib/thumb\libg.a(lib_a-errno.o)
                              c:/devkitpro/devkitarm/bin/../lib/gcc/arm-eabi/4.5.1/../../../../arm-eabi/lib/thumb\libm.a(lib_a-w_sqrt.o) (__errno)
c:/devkitpro/devkitarm/bin/../lib/gcc/arm-eabi/4.5.1/../../../../arm-eabi/lib/thumb\libg.a(lib_a-exit.o)
                              I_IBM.o (exit)
c:/devkitpro/devkitarm/bin/../lib/gcc/arm-eabi/4.5.1/../../../../arm-eabi/lib/thumb\libg.a(lib_a-fclose.o)
                              D_MAIN.o (fclose)
c:/devkitpro/devkitarm/bin/../lib/gcc/arm-eabi/4.5.1/../../../../arm-eabi/lib/thumb\libg.a(lib_a-fflush.o)
                              c:/devkitpro/devkitarm/bin/../lib/gcc/arm-eabi/4.5.1/../../../../arm-eabi/lib/thumb\libg.a(lib_a-fclose.o) (_fflush_r)
c:/devkitpro/devkitarm/bin/../lib/gcc/arm-eabi/4.5.1/../../../../arm-eabi/lib/thumb\libg.a(lib_a-findfp.o)
                              c:/devkitpro/devkitarm/bin/../lib/gcc/arm-eabi/4.5.1/../../../../arm-eabi/lib/thumb\libg.a(lib_a-fclose.o) (__sinit)
c:/devkitpro/devkitarm/bin/../lib/gcc/arm-eabi/4.5.1/../../../../arm-eabi/lib/thumb\libg.a(lib_a-fopen.o)
                              D_MAIN.o (fopen)
c:/devkitpro/devkitarm/bin/../lib/gcc/arm-eabi/4.5.1/../../../../arm-eabi/lib/thumb\libg.a(lib_a-fprintf.o)
                              AM_MAP.o (fprintf)
c:/devkitpro/devkitarm/bin/../lib/gcc/arm-eabi/4.5.1/../../../../arm-eabi/lib/thumb\libg.a(lib_a-fputc.o)
                              D_NET.o (fputc)
c:/devkitpro/devkitarm/bin/../lib/gcc/arm-eabi/4.5.1/../../../../arm-eabi/lib/thumb\libg.a(lib_a-fread.o)
                              MN_MENU.o (fread)
c:/devkitpro/devkitarm/bin/../lib/gcc/arm-eabi/4.5.1/../../../../arm-eabi/lib/thumb\libg.a(lib_a-freer.o)
                              c:/devkitpro/devkitarm/bin/../lib/gcc/arm-eabi/4.5.1/../../../../arm-eabi/lib/thumb\libg.a(lib_a-fclose.o) (_free_r)
c:/devkitpro/devkitarm/bin/../lib/gcc/arm-eabi/4.5.1/../../../../arm-eabi/lib/thumb\libg.a(lib_a-fscanf.o)
                              M_MISC.o (fscanf)
c:/devkitpro/devkitarm/bin/../lib/gcc/arm-eabi/4.5.1/../../../../arm-eabi/lib/thumb\libg.a(lib_a-fseek.o)
                              c:/devkitpro/devkitarm/bin/../lib/gcc/arm-eabi/4.5.1/../../../../arm-eabi/lib/thumb\libg.a(lib_a-fopen.o) (_fseek_r)
c:/devkitpro/devkitarm/bin/../lib/gcc/arm-eabi/4.5.1/../../../../arm-eabi/lib/thumb\libg.a(lib_a-ftell.o)
                              M_MISC.o (ftell)
c:/devkitpro/devkitarm/bin/../lib/gcc/arm-eabi/4.5.1/../../../../arm-eabi/lib/thumb\libg.a(lib_a-fwalk.o)
                              c:/devkitpro/devkitarm/bin/../lib/gcc/arm-eabi/4.5.1/../../../../arm-eabi/lib/thumb\libg.a(lib_a-findfp.o) (_fwalk)
c:/devkitpro/devkitarm/bin/../lib/gcc/arm-eabi/4.5.1/../../../../arm-eabi/lib/thumb\libg.a(lib_a-fwrite.o)
                              D_NET.o (fwrite)
c:/devkitpro/devkitarm/bin/../lib/gcc/arm-eabi/4.5.1/../../../../arm-eabi/lib/thumb\libg.a(lib_a-impure.o)
                              AM_MAP.o (_impure_ptr)
c:/devkitpro/devkitarm/bin/../lib/gcc/arm-eabi/4.5.1/../../../../arm-eabi/lib/thumb\libg.a(lib_a-init.o)
                              c:/devkitpro/devkitarm/bin/../lib/gcc/arm-eabi/4.5.1/../../../../arm-eabi/lib/thumb/ds_arm9_crt0.o (__libc_init_array)
c:/devkitpro/devkitarm/bin/../lib/gcc/arm-eabi/4.5.1/../../../../arm-eabi/lib/thumb\libg.a(lib_a-iprintf.o)
                              template.o (iprintf)
c:/devkitpro/devkitarm/bin/../lib/gcc/arm-eabi/4.5.1/../../../../arm-eabi/lib/thumb\libg.a(lib_a-lcltime_r.o)
                              c:/devkitPro/libnds/lib\libfat.a(filetime.o) (localtime_r)
c:/devkitpro/devkitarm/bin/../lib/gcc/arm-eabi/4.5.1/../../../../arm-eabi/lib/thumb\libg.a(lib_a-locale.o)
                              c:/devkitPro/libnds/lib\libfat.a(directory.o) (__mb_cur_max)
c:/devkitpro/devkitarm/bin/../lib/gcc/arm-eabi/4.5.1/../../../../arm-eabi/lib/thumb\libg.a(lib_a-makebuf.o)
                              c:/devkitpro/devkitarm/bin/../lib/gcc/arm-eabi/4.5.1/../../../../arm-eabi/lib/thumb\libg.a(lib_a-fseek.o) (__smakebuf_r)
c:/devkitpro/devkitarm/bin/../lib/gcc/arm-eabi/4.5.1/../../../../arm-eabi/lib/thumb\libg.a(lib_a-malloc.o)
                              D_MAIN.o (malloc)
c:/devkitpro/devkitarm/bin/../lib/gcc/arm-eabi/4.5.1/../../../../arm-eabi/lib/thumb\libg.a(lib_a-mallocr.o)
                              c:/devkitpro/devkitarm/bin/../lib/gcc/arm-eabi/4.5.1/../../../../arm-eabi/lib/thumb\libg.a(lib_a-callocr.o) (_malloc_r)
c:/devkitpro/devkitarm/bin/../lib/gcc/arm-eabi/4.5.1/../../../../arm-eabi/lib/thumb\libg.a(lib_a-mbrtowc.o)
                              c:/devkitPro/libnds/lib\libfat.a(directory.o) (mbrtowc)
c:/devkitpro/devkitarm/bin/../lib/gcc/arm-eabi/4.5.1/../../../../arm-eabi/lib/thumb\libg.a(lib_a-mbsrtowcs.o)
                              c:/devkitPro/libnds/lib\libfat.a(directory.o) (mbsrtowcs)
c:/devkitpro/devkitarm/bin/../lib/gcc/arm-eabi/4.5.1/../../../../arm-eabi/lib/thumb\libg.a(lib_a-mbtowc_r.o)
                              c:/devkitpro/devkitarm/bin/../lib/gcc/arm-eabi/4.5.1/../../../../arm-eabi/lib/thumb\libg.a(lib_a-locale.o) (__utf8_mbtowc)
c:/devkitpro/devkitarm/bin/../lib/gcc/arm-eabi/4.5.1/../../../../arm-eabi/lib/thumb\libg.a(lib_a-memchr.o)
                              ds_render.o (memchr)
c:/devkitpro/devkitarm/bin/../lib/gcc/arm-eabi/4.5.1/../../../../arm-eabi/lib/thumb\libg.a(lib_a-memcmp.o)
                              c:/devkitPro/libnds/lib\libfat.a(partition.o) (memcmp)
c:/devkitpro/devkitarm/bin/../lib/gcc/arm-eabi/4.5.1/../../../../arm-eabi/lib/thumb\libg.a(lib_a-memcpy.o)
                              ds_render.o (memcpy)
c:/devkitpro/devkitarm/bin/../lib/gcc/arm-eabi/4.5.1/../../../../arm-eabi/lib/thumb\libg.a(lib_a-memmove.o)
                              c:/devkitPro/libnds/lib\libfat.a(directory.o) (memmove)
c:/devkitpro/devkitarm/bin/../lib/gcc/arm-eabi/4.5.1/../../../../arm-eabi/lib/thumb\libg.a(lib_a-memset.o)
                              ds_render.o (memset)
c:/devkitpro/devkitarm/bin/../lib/gcc/arm-eabi/4.5.1/../../../../arm-eabi/lib/thumb\libg.a(lib_a-mktime.o)
                              c:/devkitPro/libnds/lib\libfat.a(filetime.o) (mktime)
c:/devkitpro/devkitarm/bin/../lib/gcc/arm-eabi/4.5.1/../../../../arm-eabi/lib/thumb\libg.a(lib_a-mktm_r.o)
                              c:/devkitpro/devkitarm/bin/../lib/gcc/arm-eabi/4.5.1/../../../../arm-eabi/lib/thumb\libg.a(lib_a-mktime.o) (__tzcalc_limits)
c:/devkitpro/devkitarm/bin/../lib/gcc/arm-eabi/4.5.1/../../../../arm-eabi/lib/thumb\libg.a(lib_a-mlock.o)
                              c:/devkitpro/devkitarm/bin/../lib/gcc/arm-eabi/4.5.1/../../../../arm-eabi/lib/thumb\libg.a(lib_a-freer.o) (__malloc_lock)
c:/devkitpro/devkitarm/bin/../lib/gcc/arm-eabi/4.5.1/../../../../arm-eabi/lib/thumb\libg.a(lib_a-printf.o)
                              ds_render.o (printf)
c:/devkitpro/devkitarm/bin/../lib/gcc/arm-eabi/4.5.1/../../../../arm-eabi/lib/thumb\libg.a(lib_a-putc.o)
                              c:/devkitpro/devkitarm/bin/../lib/gcc/arm-eabi/4.5.1/../../../../arm-eabi/lib/thumb\libg.a(lib_a-fputc.o) (_putc_r)
c:/devkitpro/devkitarm/bin/../lib/gcc/arm-eabi/4.5.1/../../../../arm-eabi/lib/thumb\libg.a(lib_a-putchar.o)
                              I_IBM.o (putchar)
c:/devkitpro/devkitarm/bin/../lib/gcc/arm-eabi/4.5.1/../../../../arm-eabi/lib/thumb\libg.a(lib_a-puts.o)
                              template.o (puts)
c:/devkitpro/devkitarm/bin/../lib/gcc/arm-eabi/4.5.1/../../../../arm-eabi/lib/thumb\libg.a(lib_a-qsort.o)
                              ds_render.o (qsort)
c:/devkitpro/devkitarm/bin/../lib/gcc/arm-eabi/4.5.1/../../../../arm-eabi/lib/thumb\libg.a(lib_a-realloc.o)
                              W_WAD.o (realloc)
c:/devkitpro/devkitarm/bin/../lib/gcc/arm-eabi/4.5.1/../../../../arm-eabi/lib/thumb\libg.a(lib_a-reallocr.o)
                              c:/devkitpro/devkitarm/bin/../lib/gcc/arm-eabi/4.5.1/../../../../arm-eabi/lib/thumb\libg.a(lib_a-realloc.o) (_realloc_r)
c:/devkitpro/devkitarm/bin/../lib/gcc/arm-eabi/4.5.1/../../../../arm-eabi/lib/thumb\libg.a(lib_a-refill.o)
                              c:/devkitpro/devkitarm/bin/../lib/gcc/arm-eabi/4.5.1/../../../../arm-eabi/lib/thumb\libg.a(lib_a-fread.o) (__srefill_r)
c:/devkitpro/devkitarm/bin/../lib/gcc/arm-eabi/4.5.1/../../../../arm-eabi/lib/thumb\libg.a(lib_a-setbuf.o)
                              D_MAIN.o (setbuf)
c:/devkitpro/devkitarm/bin/../lib/gcc/arm-eabi/4.5.1/../../../../arm-eabi/lib/thumb\libg.a(lib_a-setvbuf.o)
                              c:/devkitPro/libnds/lib\libnds9.a(console.o) (setvbuf)
c:/devkitpro/devkitarm/bin/../lib/gcc/arm-eabi/4.5.1/../../../../arm-eabi/lib/thumb\libg.a(lib_a-signal.o)
                              c:/devkitpro/devkitarm/bin/../lib/gcc/arm-eabi/4.5.1/../../../../arm-eabi/lib/thumb\libg.a(lib_a-abort.o) (raise)
c:/devkitpro/devkitarm/bin/../lib/gcc/arm-eabi/4.5.1/../../../../arm-eabi/lib/thumb\libg.a(lib_a-siscanf.o)
                              c:/devkitPro/libnds/lib\libnds9.a(console.o) (siscanf)
c:/devkitpro/devkitarm/bin/../lib/gcc/arm-eabi/4.5.1/../../../../arm-eabi/lib/thumb\libg.a(lib_a-sprintf.o)
                              D_MAIN.o (sprintf)
c:/devkitpro/devkitarm/bin/../lib/gcc/arm-eabi/4.5.1/../../../../arm-eabi/lib/thumb\libg.a(lib_a-sscanf.o)
                              M_MISC.o (sscanf)
c:/devkitpro/devkitarm/bin/../lib/gcc/arm-eabi/4.5.1/../../../../arm-eabi/lib/thumb\libg.a(lib_a-stdio.o)
                              c:/devkitpro/devkitarm/bin/../lib/gcc/arm-eabi/4.5.1/../../../../arm-eabi/lib/thumb\libg.a(lib_a-findfp.o) (__sread)
c:/devkitpro/devkitarm/bin/../lib/gcc/arm-eabi/4.5.1/../../../../arm-eabi/lib/thumb\libg.a(lib_a-strcasecmp.o)
                              M_MISC.o (strcasecmp)
c:/devkitpro/devkitarm/bin/../lib/gcc/arm-eabi/4.5.1/../../../../arm-eabi/lib/thumb\libg.a(lib_a-strcat.o)
                              CT_CHAT.o (strcat)
c:/devkitpro/devkitarm/bin/../lib/gcc/arm-eabi/4.5.1/../../../../arm-eabi/lib/thumb\libg.a(lib_a-strchr.o)
                              c:/devkitPro/libnds/lib\libfat.a(directory.o) (strchr)
c:/devkitpro/devkitarm/bin/../lib/gcc/arm-eabi/4.5.1/../../../../arm-eabi/lib/thumb\libg.a(lib_a-strcmp.o)
                              G_GAME.o (strcmp)
c:/devkitpro/devkitarm/bin/../lib/gcc/arm-eabi/4.5.1/../../../../arm-eabi/lib/thumb\libg.a(lib_a-strcpy.o)
                              CT_CHAT.o (strcpy)
c:/devkitpro/devkitarm/bin/../lib/gcc/arm-eabi/4.5.1/../../../../arm-eabi/lib/thumb\libg.a(lib_a-strlcpy.o)
                              c:/devkitpro/devkitarm/bin/../lib/gcc/arm-eabi/4.5.1/../../../../arm-eabi/lib/thumb\libg.a(lib_a-locale.o) (strlcpy)
c:/devkitpro/devkitarm/bin/../lib/gcc/arm-eabi/4.5.1/../../../../arm-eabi/lib/thumb\libg.a(lib_a-strlen.o)
                              D_MAIN.o (strlen)
c:/devkitpro/devkitarm/bin/../lib/gcc/arm-eabi/4.5.1/../../../../arm-eabi/lib/thumb\libg.a(lib_a-strncasecmp.o)
                              R_DATA.o (strncasecmp)
c:/devkitpro/devkitarm/bin/../lib/gcc/arm-eabi/4.5.1/../../../../arm-eabi/lib/thumb\libg.a(lib_a-strncmp.o)
                              W_WAD.o (strncmp)
c:/devkitpro/devkitarm/bin/../lib/gcc/arm-eabi/4.5.1/../../../../arm-eabi/lib/thumb\libg.a(lib_a-strncpy.o)
                              R_DATA.o (strncpy)
c:/devkitpro/devkitarm/bin/../lib/gcc/arm-eabi/4.5.1/../../../../arm-eabi/lib/thumb\libg.a(lib_a-strnlen.o)
                              c:/devkitPro/libnds/lib\libfat.a(directory.o) (strnlen)
c:/devkitpro/devkitarm/bin/../lib/gcc/arm-eabi/4.5.1/../../../../arm-eabi/lib/thumb\libg.a(lib_a-strpbrk.o)
                              c:/devkitPro/libnds/lib\libfat.a(directory.o) (strpbrk)
c:/devkitpro/devkitarm/bin/../lib/gcc/arm-eabi/4.5.1/../../../../arm-eabi/lib/thumb\libg.a(lib_a-strrchr.o)
                              c:/devkitPro/libnds/lib\libfat.a(libfat.o) (strrchr)
c:/devkitpro/devkitarm/bin/../lib/gcc/arm-eabi/4.5.1/../../../../arm-eabi/lib/thumb\libg.a(lib_a-strtol.o)
                              c:/devkitpro/devkitarm/bin/../lib/gcc/arm-eabi/4.5.1/../../../../arm-eabi/lib/thumb\libg.a(lib_a-atoi.o) (_strtol_r)
c:/devkitpro/devkitarm/bin/../lib/gcc/arm-eabi/4.5.1/../../../../arm-eabi/lib/thumb\libg.a(lib_a-strupr.o)
                              W_WAD.o (strupr)
c:/devkitpro/devkitarm/bin/../lib/gcc/arm-eabi/4.5.1/../../../../arm-eabi/lib/thumb\libg.a(lib_a-svfiscanf.o)
                              c:/devkitpro/devkitarm/bin/../lib/gcc/arm-eabi/4.5.1/../../../../arm-eabi/lib/thumb\libg.a(lib_a-siscanf.o) (__ssvfiscanf_r)
c:/devkitpro/devkitarm/bin/../lib/gcc/arm-eabi/4.5.1/../../../../arm-eabi/lib/thumb\libg.a(lib_a-svfprintf.o)
                              c:/devkitpro/devkitarm/bin/../lib/gcc/arm-eabi/4.5.1/../../../../arm-eabi/lib/thumb\libg.a(lib_a-sprintf.o) (_svfprintf_r)
c:/devkitpro/devkitarm/bin/../lib/gcc/arm-eabi/4.5.1/../../../../arm-eabi/lib/thumb\libg.a(lib_a-svfscanf.o)
                              c:/devkitpro/devkitarm/bin/../lib/gcc/arm-eabi/4.5.1/../../../../arm-eabi/lib/thumb\libg.a(lib_a-sscanf.o) (__ssvfscanf_r)
c:/devkitpro/devkitarm/bin/../lib/gcc/arm-eabi/4.5.1/../../../../arm-eabi/lib/thumb\libg.a(lib_a-sysclose.o)
                              M_MISC.o (close)
c:/devkitpro/devkitarm/bin/../lib/gcc/arm-eabi/4.5.1/../../../../arm-eabi/lib/thumb\libg.a(lib_a-sysfstat.o)
                              M_MISC.o (fstat)
c:/devkitpro/devkitarm/bin/../lib/gcc/arm-eabi/4.5.1/../../../../arm-eabi/lib/thumb\libg.a(lib_a-syslseek.o)
                              W_WAD.o (lseek)
c:/devkitpro/devkitarm/bin/../lib/gcc/arm-eabi/4.5.1/../../../../arm-eabi/lib/thumb\libg.a(lib_a-sysopen.o)
                              M_MISC.o (open)
c:/devkitpro/devkitarm/bin/../lib/gcc/arm-eabi/4.5.1/../../../../arm-eabi/lib/thumb\libg.a(lib_a-sysread.o)
                              M_MISC.o (read)
c:/devkitpro/devkitarm/bin/../lib/gcc/arm-eabi/4.5.1/../../../../arm-eabi/lib/thumb\libg.a(lib_a-sysstat.o)
                              c:/devkitpro/devkitarm/bin/../lib/gcc/arm-eabi/4.5.1/../../../../arm-eabi/lib/thumb\libg.a(lib_a-access.o) (stat)
c:/devkitpro/devkitarm/bin/../lib/gcc/arm-eabi/4.5.1/../../../../arm-eabi/lib/thumb\libg.a(lib_a-syswrite.o)
                              M_MISC.o (write)
c:/devkitpro/devkitarm/bin/../lib/gcc/arm-eabi/4.5.1/../../../../arm-eabi/lib/thumb\libg.a(lib_a-time.o)
                              c:/devkitPro/libnds/lib\libfat.a(filetime.o) (time)
c:/devkitpro/devkitarm/bin/../lib/gcc/arm-eabi/4.5.1/../../../../arm-eabi/lib/thumb\libg.a(lib_a-towlower.o)
                              c:/devkitPro/libnds/lib\libfat.a(directory.o) (towlower)
c:/devkitpro/devkitarm/bin/../lib/gcc/arm-eabi/4.5.1/../../../../arm-eabi/lib/thumb\libg.a(lib_a-towupper.o)
                              c:/devkitPro/libnds/lib\libfat.a(directory.o) (towupper)
c:/devkitpro/devkitarm/bin/../lib/gcc/arm-eabi/4.5.1/../../../../arm-eabi/lib/thumb\libg.a(lib_a-tzlock.o)
                              c:/devkitpro/devkitarm/bin/../lib/gcc/arm-eabi/4.5.1/../../../../arm-eabi/lib/thumb\libg.a(lib_a-mktm_r.o) (__tz_lock)
c:/devkitpro/devkitarm/bin/../lib/gcc/arm-eabi/4.5.1/../../../../arm-eabi/lib/thumb\libg.a(lib_a-tzvars.o)
                              c:/devkitpro/devkitarm/bin/../lib/gcc/arm-eabi/4.5.1/../../../../arm-eabi/lib/thumb\libg.a(lib_a-mktime.o) (_daylight)
c:/devkitpro/devkitarm/bin/../lib/gcc/arm-eabi/4.5.1/../../../../arm-eabi/lib/thumb\libg.a(lib_a-ungetc.o)
                              c:/devkitpro/devkitarm/bin/../lib/gcc/arm-eabi/4.5.1/../../../../arm-eabi/lib/thumb\libg.a(lib_a-svfiscanf.o) (__submore)
c:/devkitpro/devkitarm/bin/../lib/gcc/arm-eabi/4.5.1/../../../../arm-eabi/lib/thumb\libg.a(lib_a-vfiprintf.o)
                              c:/devkitpro/devkitarm/bin/../lib/gcc/arm-eabi/4.5.1/../../../../arm-eabi/lib/thumb\libg.a(lib_a-iprintf.o) (_vfiprintf_r)
c:/devkitpro/devkitarm/bin/../lib/gcc/arm-eabi/4.5.1/../../../../arm-eabi/lib/thumb\libg.a(lib_a-vfprintf.o)
                              c:/devkitpro/devkitarm/bin/../lib/gcc/arm-eabi/4.5.1/../../../../arm-eabi/lib/thumb\libg.a(lib_a-fprintf.o) (_vfprintf_r)
c:/devkitpro/devkitarm/bin/../lib/gcc/arm-eabi/4.5.1/../../../../arm-eabi/lib/thumb\libg.a(lib_a-vfscanf.o)
                              c:/devkitpro/devkitarm/bin/../lib/gcc/arm-eabi/4.5.1/../../../../arm-eabi/lib/thumb\libg.a(lib_a-fscanf.o) (__svfscanf_r)
c:/devkitpro/devkitarm/bin/../lib/gcc/arm-eabi/4.5.1/../../../../arm-eabi/lib/thumb\libg.a(lib_a-vprintf.o)
                              I_IBM.o (vprintf)
c:/devkitpro/devkitarm/bin/../lib/gcc/arm-eabi/4.5.1/../../../../arm-eabi/lib/thumb\libg.a(lib_a-wbuf.o)
                              c:/devkitpro/devkitarm/bin/../lib/gcc/arm-eabi/4.5.1/../../../../arm-eabi/lib/thumb\libg.a(lib_a-putc.o) (__swbuf_r)
c:/devkitpro/devkitarm/bin/../lib/gcc/arm-eabi/4.5.1/../../../../arm-eabi/lib/thumb\libg.a(lib_a-wcrtomb.o)
                              c:/devkitpro/devkitarm/bin/../lib/gcc/arm-eabi/4.5.1/../../../../arm-eabi/lib/thumb\libg.a(lib_a-svfprintf.o) (_wcrtomb_r)
c:/devkitpro/devkitarm/bin/../lib/gcc/arm-eabi/4.5.1/../../../../arm-eabi/lib/thumb\libg.a(lib_a-wcsrtombs.o)
                              c:/devkitpro/devkitarm/bin/../lib/gcc/arm-eabi/4.5.1/../../../../arm-eabi/lib/thumb\libg.a(lib_a-svfprintf.o) (_wcsrtombs_r)
c:/devkitpro/devkitarm/bin/../lib/gcc/arm-eabi/4.5.1/../../../../arm-eabi/lib/thumb\libg.a(lib_a-wctob.o)
                              c:/devkitPro/libnds/lib\libfat.a(directory.o) (wctob)
c:/devkitpro/devkitarm/bin/../lib/gcc/arm-eabi/4.5.1/../../../../arm-eabi/lib/thumb\libg.a(lib_a-wctomb_r.o)
                              c:/devkitpro/devkitarm/bin/../lib/gcc/arm-eabi/4.5.1/../../../../arm-eabi/lib/thumb\libg.a(lib_a-locale.o) (__utf8_wctomb)
c:/devkitpro/devkitarm/bin/../lib/gcc/arm-eabi/4.5.1/../../../../arm-eabi/lib/thumb\libg.a(lib_a-wsetup.o)
                              c:/devkitpro/devkitarm/bin/../lib/gcc/arm-eabi/4.5.1/../../../../arm-eabi/lib/thumb\libg.a(lib_a-vfiprintf.o) (__swsetup_r)
c:/devkitpro/devkitarm/bin/../lib/gcc/arm-eabi/4.5.1/../../../../arm-eabi/lib/thumb\libg.a(lib_a-__call_atexit.o)
                              c:/devkitpro/devkitarm/bin/../lib/gcc/arm-eabi/4.5.1/../../../../arm-eabi/lib/thumb\libg.a(lib_a-exit.o) (__call_exitprocs)
c:/devkitpro/devkitarm/bin/../lib/gcc/arm-eabi/4.5.1/../../../../arm-eabi/lib/thumb\libg.a(lib_a-div.o)
                              c:/devkitpro/devkitarm/bin/../lib/gcc/arm-eabi/4.5.1/../../../../arm-eabi/lib/thumb\libg.a(lib_a-mktime.o) (div)
c:/devkitpro/devkitarm/bin/../lib/gcc/arm-eabi/4.5.1/../../../../arm-eabi/lib/thumb\libg.a(lib_a-dtoa.o)
                              c:/devkitpro/devkitarm/bin/../lib/gcc/arm-eabi/4.5.1/../../../../arm-eabi/lib/thumb\libg.a(lib_a-svfprintf.o) (_dtoa_r)
c:/devkitpro/devkitarm/bin/../lib/gcc/arm-eabi/4.5.1/../../../../arm-eabi/lib/thumb\libg.a(lib_a-flags.o)
                              c:/devkitpro/devkitarm/bin/../lib/gcc/arm-eabi/4.5.1/../../../../arm-eabi/lib/thumb\libg.a(lib_a-fopen.o) (__sflags)
c:/devkitpro/devkitarm/bin/../lib/gcc/arm-eabi/4.5.1/../../../../arm-eabi/lib/thumb\libg.a(lib_a-fputwc.o)
                              c:/devkitpro/devkitarm/bin/../lib/gcc/arm-eabi/4.5.1/../../../../arm-eabi/lib/thumb\libg.a(lib_a-vfiprintf.o) (_fputwc_r)
c:/devkitpro/devkitarm/bin/../lib/gcc/arm-eabi/4.5.1/../../../../arm-eabi/lib/thumb\libg.a(lib_a-fvwrite.o)
                              c:/devkitpro/devkitarm/bin/../lib/gcc/arm-eabi/4.5.1/../../../../arm-eabi/lib/thumb\libg.a(lib_a-fwrite.o) (__sfvwrite_r)
c:/devkitpro/devkitarm/bin/../lib/gcc/arm-eabi/4.5.1/../../../../arm-eabi/lib/thumb\libg.a(lib_a-getenv_r.o)
                              c:/devkitpro/devkitarm/bin/../lib/gcc/arm-eabi/4.5.1/../../../../arm-eabi/lib/thumb\libg.a(lib_a-locale.o) (_getenv_r)
c:/devkitpro/devkitarm/bin/../lib/gcc/arm-eabi/4.5.1/../../../../arm-eabi/lib/thumb\libg.a(lib_a-gettzinfo.o)
                              c:/devkitpro/devkitarm/bin/../lib/gcc/arm-eabi/4.5.1/../../../../arm-eabi/lib/thumb\libg.a(lib_a-mktime.o) (__gettzinfo)
c:/devkitpro/devkitarm/bin/../lib/gcc/arm-eabi/4.5.1/../../../../arm-eabi/lib/thumb\libg.a(lib_a-iswspace.o)
                              c:/devkitpro/devkitarm/bin/../lib/gcc/arm-eabi/4.5.1/../../../../arm-eabi/lib/thumb\libg.a(lib_a-svfiscanf.o) (iswspace)
c:/devkitpro/devkitarm/bin/../lib/gcc/arm-eabi/4.5.1/../../../../arm-eabi/lib/thumb\libg.a(lib_a-jp2uc.o)
                              c:/devkitpro/devkitarm/bin/../lib/gcc/arm-eabi/4.5.1/../../../../arm-eabi/lib/thumb\libg.a(lib_a-towlower.o) (_jp2uc)
c:/devkitpro/devkitarm/bin/../lib/gcc/arm-eabi/4.5.1/../../../../arm-eabi/lib/thumb\libg.a(lib_a-mbsnrtowcs.o)
                              c:/devkitpro/devkitarm/bin/../lib/gcc/arm-eabi/4.5.1/../../../../arm-eabi/lib/thumb\libg.a(lib_a-mbsrtowcs.o) (_mbsnrtowcs_r)
c:/devkitpro/devkitarm/bin/../lib/gcc/arm-eabi/4.5.1/../../../../arm-eabi/lib/thumb\libg.a(lib_a-mprec.o)
                              c:/devkitpro/devkitarm/bin/../lib/gcc/arm-eabi/4.5.1/../../../../arm-eabi/lib/thumb\libg.a(lib_a-dtoa.o) (_Balloc)
c:/devkitpro/devkitarm/bin/../lib/gcc/arm-eabi/4.5.1/../../../../arm-eabi/lib/thumb\libg.a(lib_a-sccl.o)
                              c:/devkitpro/devkitarm/bin/../lib/gcc/arm-eabi/4.5.1/../../../../arm-eabi/lib/thumb\libg.a(lib_a-svfiscanf.o) (__sccl)
c:/devkitpro/devkitarm/bin/../lib/gcc/arm-eabi/4.5.1/../../../../arm-eabi/lib/thumb\libg.a(lib_a-sf_nan.o)
                              c:/devkitpro/devkitarm/bin/../lib/gcc/arm-eabi/4.5.1/../../../../arm-eabi/lib/thumb\libg.a(lib_a-svfscanf.o) (nanf)
c:/devkitpro/devkitarm/bin/../lib/gcc/arm-eabi/4.5.1/../../../../arm-eabi/lib/thumb\libg.a(lib_a-strtod.o)
                              c:/devkitpro/devkitarm/bin/../lib/gcc/arm-eabi/4.5.1/../../../../arm-eabi/lib/thumb\libg.a(lib_a-svfscanf.o) (_strtod_r)
c:/devkitpro/devkitarm/bin/../lib/gcc/arm-eabi/4.5.1/../../../../arm-eabi/lib/thumb\libg.a(lib_a-strtoll_r.o)
                              c:/devkitpro/devkitarm/bin/../lib/gcc/arm-eabi/4.5.1/../../../../arm-eabi/lib/thumb\libg.a(lib_a-svfiscanf.o) (_strtoll_r)
c:/devkitpro/devkitarm/bin/../lib/gcc/arm-eabi/4.5.1/../../../../arm-eabi/lib/thumb\libg.a(lib_a-strtoul.o)
                              c:/devkitpro/devkitarm/bin/../lib/gcc/arm-eabi/4.5.1/../../../../arm-eabi/lib/thumb\libg.a(lib_a-svfiscanf.o) (_strtoul_r)
c:/devkitpro/devkitarm/bin/../lib/gcc/arm-eabi/4.5.1/../../../../arm-eabi/lib/thumb\libg.a(lib_a-strtoull_r.o)
                              c:/devkitpro/devkitarm/bin/../lib/gcc/arm-eabi/4.5.1/../../../../arm-eabi/lib/thumb\libg.a(lib_a-svfiscanf.o) (_strtoull_r)
c:/devkitpro/devkitarm/bin/../lib/gcc/arm-eabi/4.5.1/../../../../arm-eabi/lib/thumb\libg.a(lib_a-svfiprintf.o)
                              c:/devkitpro/devkitarm/bin/../lib/gcc/arm-eabi/4.5.1/../../../../arm-eabi/lib/thumb\libg.a(lib_a-svfprintf.o) (__ssprint_r)
c:/devkitpro/devkitarm/bin/../lib/gcc/arm-eabi/4.5.1/../../../../arm-eabi/lib/thumb\libg.a(lib_a-wcsnrtombs.o)
                              c:/devkitpro/devkitarm/bin/../lib/gcc/arm-eabi/4.5.1/../../../../arm-eabi/lib/thumb\libg.a(lib_a-wcsrtombs.o) (_wcsnrtombs_r)
c:/devkitpro/devkitarm/bin/../lib/gcc/arm-eabi/4.5.1/../../../../arm-eabi/lib/thumb\libg.a(lib_a-environ.o)
                              c:/devkitpro/devkitarm/bin/../lib/gcc/arm-eabi/4.5.1/../../../../arm-eabi/lib/thumb\libg.a(lib_a-getenv_r.o) (environ)
c:/devkitpro/devkitarm/bin/../lib/gcc/arm-eabi/4.5.1/../../../../arm-eabi/lib/thumb\libg.a(lib_a-envlock.o)
                              c:/devkitpro/devkitarm/bin/../lib/gcc/arm-eabi/4.5.1/../../../../arm-eabi/lib/thumb\libg.a(lib_a-getenv_r.o) (__env_lock)
c:/devkitpro/devkitarm/bin/../lib/gcc/arm-eabi/4.5.1/../../../../arm-eabi/lib/thumb\libg.a(lib_a-gdtoa-gethex.o)
                              c:/devkitpro/devkitarm/bin/../lib/gcc/arm-eabi/4.5.1/../../../../arm-eabi/lib/thumb\libg.a(lib_a-strtod.o) (__gethex)
c:/devkitpro/devkitarm/bin/../lib/gcc/arm-eabi/4.5.1/../../../../arm-eabi/lib/thumb\libg.a(lib_a-gdtoa-hexnan.o)
                              c:/devkitpro/devkitarm/bin/../lib/gcc/arm-eabi/4.5.1/../../../../arm-eabi/lib/thumb\libg.a(lib_a-strtod.o) (__hexnan)
c:/devkitpro/devkitarm/bin/../lib/gcc/arm-eabi/4.5.1/../../../../arm-eabi/lib/thumb\libsysbase.a(iosupport.o)
                              c:/devkitPro/libnds/lib\libfat.a(libfat.o) (FindDevice)
c:/devkitpro/devkitarm/bin/../lib/gcc/arm-eabi/4.5.1/../../../../arm-eabi/lib/thumb\libsysbase.a(close.o)
                              c:/devkitpro/devkitarm/bin/../lib/gcc/arm-eabi/4.5.1/../../../../arm-eabi/lib/thumb\libg.a(lib_a-stdio.o) (_close_r)
c:/devkitpro/devkitarm/bin/../lib/gcc/arm-eabi/4.5.1/../../../../arm-eabi/lib/thumb\libsysbase.a(fstat.o)
                              c:/devkitpro/devkitarm/bin/../lib/gcc/arm-eabi/4.5.1/../../../../arm-eabi/lib/thumb\libg.a(lib_a-fseek.o) (_fstat_r)
c:/devkitpro/devkitarm/bin/../lib/gcc/arm-eabi/4.5.1/../../../../arm-eabi/lib/thumb\libsysbase.a(getpid.o)
                              c:/devkitpro/devkitarm/bin/../lib/gcc/arm-eabi/4.5.1/../../../../arm-eabi/lib/thumb\libg.a(lib_a-signal.o) (_getpid_r)
c:/devkitpro/devkitarm/bin/../lib/gcc/arm-eabi/4.5.1/../../../../arm-eabi/lib/thumb\libsysbase.a(isatty.o)
                              c:/devkitpro/devkitarm/bin/../lib/gcc/arm-eabi/4.5.1/../../../../arm-eabi/lib/thumb\libg.a(lib_a-makebuf.o) (_isatty_r)
c:/devkitpro/devkitarm/bin/../lib/gcc/arm-eabi/4.5.1/../../../../arm-eabi/lib/thumb\libsysbase.a(kill.o)
                              c:/devkitpro/devkitarm/bin/../lib/gcc/arm-eabi/4.5.1/../../../../arm-eabi/lib/thumb\libg.a(lib_a-signal.o) (_kill_r)
c:/devkitpro/devkitarm/bin/../lib/gcc/arm-eabi/4.5.1/../../../../arm-eabi/lib/thumb\libsysbase.a(lseek.o)
                              c:/devkitpro/devkitarm/bin/../lib/gcc/arm-eabi/4.5.1/../../../../arm-eabi/lib/thumb\libg.a(lib_a-stdio.o) (_lseek_r)
c:/devkitpro/devkitarm/bin/../lib/gcc/arm-eabi/4.5.1/../../../../arm-eabi/lib/thumb\libsysbase.a(open.o)
                              c:/devkitpro/devkitarm/bin/../lib/gcc/arm-eabi/4.5.1/../../../../arm-eabi/lib/thumb\libg.a(lib_a-fopen.o) (_open_r)
c:/devkitpro/devkitarm/bin/../lib/gcc/arm-eabi/4.5.1/../../../../arm-eabi/lib/thumb\libsysbase.a(read.o)
                              c:/devkitpro/devkitarm/bin/../lib/gcc/arm-eabi/4.5.1/../../../../arm-eabi/lib/thumb\libg.a(lib_a-stdio.o) (_read_r)
c:/devkitpro/devkitarm/bin/../lib/gcc/arm-eabi/4.5.1/../../../../arm-eabi/lib/thumb\libsysbase.a(sbrk.o)
                              c:/devkitpro/devkitarm/bin/../lib/gcc/arm-eabi/4.5.1/../../../../arm-eabi/lib/thumb\libg.a(lib_a-freer.o) (_sbrk_r)
c:/devkitpro/devkitarm/bin/../lib/gcc/arm-eabi/4.5.1/../../../../arm-eabi/lib/thumb\libsysbase.a(stat.o)
                              c:/devkitpro/devkitarm/bin/../lib/gcc/arm-eabi/4.5.1/../../../../arm-eabi/lib/thumb\libg.a(lib_a-sysstat.o) (_stat_r)
c:/devkitpro/devkitarm/bin/../lib/gcc/arm-eabi/4.5.1/../../../../arm-eabi/lib/thumb\libsysbase.a(times.o)
                              c:/devkitpro/devkitarm/bin/../lib/gcc/arm-eabi/4.5.1/../../../../arm-eabi/lib/thumb\libg.a(lib_a-time.o) (_gettimeofday_r)
c:/devkitpro/devkitarm/bin/../lib/gcc/arm-eabi/4.5.1/../../../../arm-eabi/lib/thumb\libsysbase.a(write.o)
                              c:/devkitpro/devkitarm/bin/../lib/gcc/arm-eabi/4.5.1/../../../../arm-eabi/lib/thumb\libg.a(lib_a-stdio.o) (_write_r)
c:/devkitpro/devkitarm/bin/../lib/gcc/arm-eabi/4.5.1/../../../../arm-eabi/lib/thumb\libsysbase.a(_exit.o)
                              c:/devkitpro/devkitarm/bin/../lib/gcc/arm-eabi/4.5.1/../../../../arm-eabi/lib/thumb\libg.a(lib_a-abort.o) (_exit)
c:/devkitpro/devkitarm/bin/../lib/gcc/arm-eabi/4.5.1/../../../../arm-eabi/lib/thumb\libsysbase.a(malloc_vars.o)
                              c:/devkitpro/devkitarm/bin/../lib/gcc/arm-eabi/4.5.1/../../../../arm-eabi/lib/thumb/ds_arm9_crt0.o (fake_heap_end)
c:/devkitpro/devkitarm/bin/../lib/gcc/arm-eabi/4.5.1/../../../../arm-eabi/lib/thumb\libsysbase.a(chdir.o)
                              c:/devkitPro/libnds/lib\libfat.a(libfat.o) (chdir)
c:/devkitpro/devkitarm/bin/../lib/gcc/arm-eabi/4.5.1/../../../../arm-eabi/lib/thumb\libsysbase.a(build_argv.o)
                              c:/devkitpro/devkitarm/bin/../lib/gcc/arm-eabi/4.5.1/../../../../arm-eabi/lib/thumb/ds_arm9_crt0.o (build_argv)
c:/devkitpro/devkitarm/bin/../lib/gcc/arm-eabi/4.5.1/../../../../arm-eabi/lib/thumb\libsysbase.a(syscall_support.o)
                              c:/devkitPro/libnds/lib\libnds9.a(initSystem.o) (__syscalls)
c:/devkitpro/devkitarm/bin/../lib/gcc/arm-eabi/4.5.1/../../../../arm-eabi/lib/thumb\libsysbase.a(handle_manager.o)
                              c:/devkitpro/devkitarm/bin/../lib/gcc/arm-eabi/4.5.1/../../../../arm-eabi/lib/thumb\libsysbase.a(close.o) (__release_handle)
c:/devkitpro/devkitarm/bin/../lib/gcc/arm-eabi/4.5.1/thumb\libgcc.a(_arm_fixunsdfsi.o)
                              c:/devkitpro/devkitarm/bin/../lib/gcc/arm-eabi/4.5.1/../../../../arm-eabi/lib/thumb\libg.a(lib_a-strtod.o) (__aeabi_d2uiz)
c:/devkitpro/devkitarm/bin/../lib/gcc/arm-eabi/4.5.1/thumb\libgcc.a(_aeabi_uldivmod.o)
                              c:/devkitpro/devkitarm/bin/../lib/gcc/arm-eabi/4.5.1/../../../../arm-eabi/lib/thumb\libg.a(lib_a-svfprintf.o) (__aeabi_uldivmod)

Allocating common symbols
Common symbol       size              file

spriteheight        0x4               R_DATA.o
detailshift         0x4               R_MAIN.o
curpos              0x4               SB_BAR.o
vz                  0x4               glMain.o
sectors             0x4               P_SETUP.o
numflats            0x4               R_DATA.o
shootthing          0x4               P_MAP.o
pspritescale        0x4               R_THINGS.o
timingdemo          0x4               G_GAME.o
ds_blocks           0x60              ds_textures.o
tmflags             0x4               P_MAP.o
paused              0x4               G_GAME.o
topslope            0x4               P_SIGHT.o
PatchARMCLEAR       0x4               SB_BAR.o
bmapwidth           0x4               P_SETUP.o
currentCopy         0x5c              c:/devkitPro/libnds/lib\libnds9.a(console.o)
sprites             0x4               R_THINGS.o
skytexture          0x4               R_MAIN.o
totalitems          0x4               G_GAME.o
BorderTopRefresh    0x4               R_MAIN.o
debugfile           0x4               D_MAIN.o
netbuffer           0x4               D_NET.o
centery             0x4               R_MAIN.o
snd_MusicVolume     0x4               I_SOUND.o
thintriangle_guy    0x30              AM_MAP.o
numlumps            0x4               W_WAD.o
reboundstore        0xc8              D_NET.o
projection          0x4               R_MAIN.o
BorderNeedRefresh   0x4               D_MAIN.o
texturecolumnlump   0x4               R_DATA.o
sightcounts         0xc               P_SIGHT.o
viewcos             0x4               R_MAIN.o
DS_TEXTURE_BASE4    0x4               ds_textures.o
finalecount         0x4               F_FINALE.o
PatchBARBACK        0x4               SB_BAR.o
vertexes            0x4               P_SETUP.o
fixedcolormap       0x4               R_MAIN.o
transcolfunc        0x4               R_MAIN.o
deathmatch_p        0x4               P_SETUP.o
fifo_datamsg_data   0x40              c:/devkitPro/libnds/lib\libnds9.a(fifosystem.o)
grmode              0x4               I_IBM.o
AmbSfxCount         0x4               P_SPEC.o
numlinespecials     0x2               P_SPEC.o
mouseSensitivity    0x4               M_MISC.o
tmceilingz          0x4               P_MAP.o
FontABaseLump       0x4               F_FINALE.o
texturecolumnofs    0x4               R_DATA.o
ArtifactFlash       0x4               SB_BAR.o
PatchSTATBAR        0x4               SB_BAR.o
maketic             0x4               D_NET.o
basejoyx            0x4               I_IBM.o
startmap            0x4               D_MAIN.o
joyymove            0x4               G_GAME.o
zlight              0x2000            R_MAIN.o
extralight          0x4               R_MAIN.o
bombdamage          0x4               P_MAP.o
MissileMobj         0x4               P_MOBJ.o
starttime           0x4               G_GAME.o
TerrainTypes        0x4               P_SPEC.o
linespeciallist     0x100             P_SPEC.o
bmaporgy            0x4               P_SETUP.o
nettics             0x20              D_NET.o
numsides            0x4               P_SETUP.o
tmthing             0x4               P_MAP.o
__dsimode           0x1               c:/devkitPro/libnds/lib\libnds9.a(initSystem.o)
blockmaplump        0x4               P_SETUP.o
altdown             0x4               CT_CHAT.o
openbottom          0x4               P_MAPUTL.o
tmx                 0x4               P_MAP.o
activeplats         0x78              P_PLATS.o
openrange           0x4               P_MAPUTL.o
demoname            0x20              G_GAME.o
PatchRTFACE         0x4               SB_BAR.o
bgState             0x140             c:/devkitPro/libnds/lib\libnds9.a(background.o)
UpdateState         0x4               I_IBM.o
fuzzcolfunc         0x4               R_MAIN.o
rejectmatrix        0x4               P_SETUP.o
textureheight       0x4               R_DATA.o
trace               0x10              P_MAPUTL.o
key_flyup           0x4               G_GAME.o
savebuffer          0x4               G_GAME.o
fifo_buffer         0x800             c:/devkitPro/libnds/lib\libnds9.a(fifosystem.o)
floors_ds           0x4               geometry.o
numpatches          0x4               R_DATA.o
viewheightfrac      0x4               ds_render.o
nofit               0x4               P_MAP.o
mus_lumpnum         0x4               soundst.o
viewy               0x4               R_MAIN.o
dclicks2            0x4               G_GAME.o
viewangletox        0x4000            R_MAIN.o
PatchRTFCTOP        0x4               SB_BAR.o
firstflat           0x4               R_DATA.o
localcmds           0xc0              D_NET.o
opentop             0x4               P_MAPUTL.o
bodyque             0x80              P_ENEMY.o
lumpcache           0x4               W_WAD.o
secondslidefrac     0x4               P_MAP.o
soundtarget         0x4               P_ENEMY.o
ceilingline         0x4               P_MAP.o
mousebstrafe        0x4               G_GAME.o
singletics          0x4               D_MAIN.o
dclicktime2         0x4               G_GAME.o
askforquit          0x4               MN_MENU.o
key_lookcenter      0x4               G_GAME.o
exrnwads2           0x50              D_MAIN.o
framecount          0x4               R_MAIN.o
failCount           0x4               ds_render.o
c_occludedSprites   0x4               ds_render.o
novideo             0x4               I_IBM.o
mus_sndptr          0x4               soundst.o
d_skill             0x1               G_GAME.o
startup             0x4               D_MAIN.o
numvertexes         0x4               P_SETUP.o
DS_TEXTURE_BASE     0x4               ds_textures.o
glMVPmatrixd        0x80              ds_render.o
noartiskip          0x4               D_MAIN.o
kbdtail             0x4               I_IBM.o
myargv              0x4               M_MISC.o
usemouse            0x4               M_MISC.o
setsizeneeded       0x4               R_MAIN.o
snd_SfxDevice       0x4               I_SOUND.o
usergame            0x4               G_GAME.o
ds_display_bottom_height
                    0x4               template.o
respawnmonsters     0x4               G_GAME.o
debugmode           0x4               D_MAIN.o
bombspot            0x4               P_MAP.o
xtoviewangle        0x504             R_MAIN.o
loopcount           0x4               R_MAIN.o
cdrom               0x4               D_MAIN.o
bgIsTextLut         0x8               c:/devkitPro/libnds/lib\libnds9.a(background.o)
screen              0x4               V_VIDEO.o
screenblocks        0x4               R_MAIN.o
PatchINumbers       0x28              SB_BAR.o
snd_Mport           0x4               I_SOUND.o
PatchSmNumbers      0x28              SB_BAR.o
PatchNEGATIVE       0x4               SB_BAR.o
sky_mask_polyid     0x4               ds_render.o
scalelight          0xc00             R_MAIN.o
smsg                0x50              D_MAIN.o
tmfloorz            0x4               P_MAP.o
frametics           0x10              D_NET.o
key_use             0x4               G_GAME.o
newtorch            0x4               P_USER.o
prevmap             0x4               G_GAME.o
demobuffer          0x4               G_GAME.o
ds_palette          0x200             I_IBM.o
defdemoname         0x4               G_GAME.o
numswitches         0x4               P_SWITCH.o
joybfire            0x4               G_GAME.o
bombsource          0x4               P_MAP.o
typeofask           0x4               MN_MENU.o
setdetail           0x4               R_MAIN.o
intercepts          0x600             P_MAPUTL.o
colfunc             0x4               R_MAIN.o
LevelAmbientSfx     0x20              P_SPEC.o
flattranslation     0x4               R_DATA.o
dclicktime          0x4               G_GAME.o
savename            0x100             G_GAME.o
consoleplayer       0x4               G_GAME.o
maxsend             0x4               D_NET.o
playerstarts        0x28              P_SETUP.o
PatchINVRTGEM2      0x4               SB_BAR.o
attackrange         0x4               P_MAP.o
fifo_value32_func   0x40              c:/devkitPro/libnds/lib\libnds9.a(fifosystem.o)
key_strafeleft      0x4               G_GAME.o
fifo_address_func   0x40              c:/devkitPro/libnds/lib\libnds9.a(fifosystem.o)
spinflylump         0x4               SB_BAR.o
usething            0x4               P_MAP.o
textures_ds         0x4               R_DATA.o
flats_ds            0x4               R_DATA.o
shootz              0x4               P_MAP.o
dclicks             0x4               G_GAME.o
linecount           0x4               R_MAIN.o
skiptics            0x4               D_NET.o
vx                  0x4               glMain.o
sprtemp             0x2d8             R_THINGS.o
ds_textures3        0x60              ds_textures.o
PatchCHAIN          0x4               SB_BAR.o
__hexdig            0x100             c:/devkitpro/devkitarm/bin/../lib/gcc/arm-eabi/4.5.1/../../../../arm-eabi/lib/thumb\libg.a(lib_a-gdtoa-gethex.o)
defaultfile         0x4               M_MISC.o
InfoType            0x4               MN_MENU.o
texturememory       0x4               R_DATA.o
messageson          0x4               MN_MENU.o
tmbbox              0x10              P_MAP.o
chat_msg            0x200             CT_CHAT.o
exrnwads            0x50              D_MAIN.o
turnheld            0x4               G_GAME.o
lastspritelump      0x4               R_DATA.o
pagetic             0x4               D_MAIN.o
texturecompositesize
                    0x4               R_DATA.o
clipangle           0x4               R_MAIN.o
MenuActive          0x4               MN_MENU.o
players             0x730             G_GAME.o
joyyl               0x4               I_IBM.o
switchlist          0x190             P_SWITCH.o
numsectors          0x4               P_SETUP.o
startskill          0x1               D_MAIN.o
earlyout            0x4               P_MAPUTL.o
demo_p              0x4               G_GAME.o
ds_triangles        0x4               glMain.o
spritewidth         0x4               R_DATA.o
ds_textures2        0x100             ds_textures.o
numSectorPlanes     0x4               ds_render.o
joyxl               0x4               I_IBM.o
ds_textures         0x400             ds_textures.o
LavaInflictor       0xa8              P_SPEC.o
pcscreen            0x4               I_IBM.o
respawnparm         0x4               D_MAIN.o
plr_lastmsg         0x224             CT_CHAT.o
gamekeydown         0x400             G_GAME.o
AmbSfxVolume        0x4               P_SPEC.o
cheat_player_arrow  0x100             AM_MAP.o
detailLevel         0x4               R_MAIN.o
lines_ds            0x10              geometry.o
finaleflat          0x4               F_FINALE.o
keyboardque         0x40              I_IBM.o
keysquare           0x80              AM_MAP.o
totalsecret         0x4               G_GAME.o
screenheightarray   0x280             R_THINGS.o
mousepresent        0x4               I_IBM.o
resendcount         0x20              D_NET.o
destview            0x4               I_IBM.o
tail                0x4               CT_CHAT.o
ChatQueue           0x80              CT_CHAT.o
bulletslope         0x4               P_PSPR.o
gamestate           0x1               G_GAME.o
deathmatchstarts    0x64              P_SETUP.o
texturewidthmask    0x4               R_DATA.o
maxframe            0x4               R_THINGS.o
flatmemory          0x4               R_DATA.o
DS_TEXTURE_BASE3    0x4               ds_textures.o
snd_SBirq           0x4               I_SOUND.o
netgame             0x4               G_GAME.o
ds_texture_pal      0x4               I_IBM.o
anims               0x280             P_SPEC.o
viewsin             0x4               R_MAIN.o
PuffType            0x2               P_MOBJ.o
key_useartifact     0x4               G_GAME.o
exitmsg             0x50              D_NET.o
lastflat            0x4               R_DATA.o
mousey              0x4               G_GAME.o
glMVPmatrix         0x40              ds_render.o
key_straferight     0x4               G_GAME.o
sscount             0x4               R_MAIN.o
centerx             0x4               R_MAIN.o
singledemo          0x4               G_GAME.o
head                0x4               CT_CHAT.o
AmbChan             0x4               soundst.o
netcmds             0x300             D_NET.o
tmy                 0x4               P_MAP.o
dsMat               0x40              ds_render.o
kbdhead             0x4               I_IBM.o
joybspeed           0x4               G_GAME.o
linetarget          0x4               P_MAP.o
bmaporgx            0x4               P_SETUP.o
spanfunc            0x4               R_MAIN.o
nodeforplayer       0x10              D_NET.o
lastanim            0x4               P_SPEC.o
joyarray            0x14              G_GAME.o
KeyPoints           0x18              AM_MAP.o
texturetranslation  0x4               R_DATA.o
joystickpresent     0x4               I_IBM.o
consistancy         0x60              G_GAME.o
reboundpacket       0x4               D_NET.o
inventoryTics       0x4               G_GAME.o
subsectors          0x4               P_SETUP.o
intercept_p         0x4               P_MAPUTL.o
segs                0x4               P_SETUP.o
inventory           0x4               SB_BAR.o
demosequence        0x4               D_MAIN.o
ds_display_bottom   0x4               template.o
frameskip           0x10              D_NET.o
numtextures         0x4               R_DATA.o
ultimatemsg         0x4               P_INTER.o
sprites_ds          0x4               R_DATA.o
nomonsters          0x4               D_MAIN.o
numsegs             0x4               P_SETUP.o
mousebfire          0x4               G_GAME.o
spriteoffset        0x4               R_DATA.o
fifo_value32_data   0x40              c:/devkitPro/libnds/lib\libnds9.a(fifosystem.o)
numdefaults         0x4               M_MISC.o
destscreen          0x4               I_IBM.o
tmsg                0x12c             D_MAIN.o
FontBNumBase        0x4               SB_BAR.o
firstspritelump     0x4               R_DATA.o
glView              0x10              ds_render.o
snd_DesiredSfxDevice
                    0x4               I_SOUND.o
cheated             0x4               CT_CHAT.o
numsprites          0x4               R_THINGS.o
fifo_value32_queue  0x40              c:/devkitPro/libnds/lib\libnds9.a(fifosystem.o)
finalestage         0x4               F_FINALE.o
chat_macros         0x28              CT_CHAT.o
onmobj              0x4               P_MAP.o
lumpinfo            0x4               W_WAD.o
fifo_data_queue     0x40              c:/devkitPro/libnds/lib\libnds9.a(fifosystem.o)
key_flydown         0x4               G_GAME.o
demoplayback        0x4               G_GAME.o
pspriteiscale       0x4               R_THINGS.o
intermission        0x4               IN_LUDE.o
triangle_guy        0x30              AM_MAP.o
tmdropoffz          0x4               P_MAP.o
key_flycenter       0x4               G_GAME.o
totalkills          0x4               G_GAME.o
PatchINVLFGEM2      0x4               SB_BAR.o
DebugSound          0x4               SB_BAR.o
scalelightfixed     0xc0              R_MAIN.o
gameskill           0x1               G_GAME.o
playeringame        0x10              G_GAME.o
basecolfunc         0x4               R_MAIN.o
bmapheight          0x4               P_SETUP.o
finaletext          0x4               F_FINALE.o
numlines            0x4               P_SETUP.o
viewplayer          0x4               R_MAIN.o
playpalette         0x4               SB_BAR.o
msglen              0x10              CT_CHAT.o
savegameslot        0x4               G_GAME.o
joyyh               0x4               I_IBM.o
sectorPlanes        0x3000            ds_render.o
gameepisode         0x4               G_GAME.o
snd_MusicDevice     0x4               I_SOUND.o
key_invright        0x4               G_GAME.o
viewz               0x4               R_MAIN.o
vy                  0x4               glMain.o
newtorchdelta       0x4               P_USER.o
joybstrafe          0x4               G_GAME.o
joyxh               0x4               I_IBM.o
key_fire            0x4               G_GAME.o
SaveGameType        0x4               G_GAME.o
gl_walls            0x1a000           ds_render.o
gametic             0x4               G_GAME.o
PatchINVRTGEM1      0x4               SB_BAR.o
nodes               0x4               P_SETUP.o
floors_ds2          0x4               geometry.o
AmbSfxTics          0x4               P_SPEC.o
lastpatch           0x4               R_DATA.o
textures            0x4               R_DATA.o
snd_Channels        0x4               I_SOUND.o
joybuse             0x4               G_GAME.o
thermMax            0x4               D_MAIN.o
spritename          0x4               R_THINGS.o
numnodes            0x4               P_SETUP.o
key_right           0x4               G_GAME.o
skyflatnum          0x4               R_MAIN.o
gl_sprites          0x2200            ds_render.o
dclickstate         0x4               G_GAME.o
levelstarttic       0x4               G_GAME.o
colormaps           0x4               R_DATA.o
ds_textures4        0x200             ds_textures.o
player_arrow        0xa0              AM_MAP.o
viewangleoffset     0x4               R_MAIN.o
lookheld            0x4               G_GAME.o
host_basepal        0x4               ds_textures.o
numspechit          0x4               P_MAP.o
setblocks           0x4               R_MAIN.o
thinkercap          0xc               P_TICK.o
spritememory        0x4               R_DATA.o
ravpic              0x4               D_MAIN.o
d_map               0x4               G_GAME.o
onground            0x4               P_USER.o
snd_SBport          0x4               I_SOUND.o
demorecording       0x4               G_GAME.o
chat_dest           0x10              CT_CHAT.o
d_episode           0x4               G_GAME.o
snd_MaxVolume       0x4               I_SOUND.o
basejoyy            0x4               I_IBM.o
bottomslope         0x4               P_SIGHT.o
key_lookdown        0x4               G_GAME.o
occlusion           0x102             ds_render.o
joyxmove            0x4               G_GAME.o
myargc              0x4               M_MISC.o
deathmatch          0x4               G_GAME.o
secondslideline     0x4               P_MAP.o
ticdup              0x4               D_NET.o
displayplayer       0x4               G_GAME.o
spinbooklump        0x4               SB_BAR.o
pagename            0x4               D_MAIN.o
key_invleft         0x4               G_GAME.o
PatchCHAINBACK      0x4               SB_BAR.o
bestslidefrac       0x4               P_MAP.o
SaveGameFP          0x4               G_GAME.o
punixTime           0x4               c:/devkitpro/devkitarm/bin/../lib/gcc/arm-eabi/4.5.1/../../../../arm-eabi/lib/thumb\libsysbase.a(times.o)
autostart           0x4               D_MAIN.o
events              0x400             D_MAIN.o
centeryfrac         0x4               R_MAIN.o
spritelights        0x4               R_THINGS.o
advancedemo         0x4               D_MAIN.o
c_sectors           0x4               ds_render.o
key_left            0x4               G_GAME.o
soundCurve          0x4               soundst.o
spritetopoffset     0x4               R_DATA.o
floatok             0x4               P_MAP.o
thermCurrent        0x4               D_MAIN.o
doomcom             0x4               D_NET.o
fifo_address_data   0x40              c:/devkitPro/libnds/lib\libnds9.a(fifosystem.o)
firstpatch          0x4               R_DATA.o
ptflags             0x4               P_MAPUTL.o
viewactive          0x4               G_GAME.o
key_strafe          0x4               G_GAME.o
DS_TEXTURE_BASE2    0x4               ds_textures.o
aimslope            0x4               P_MAP.o
specials_e          0x1               P_TICK.o
PatchSELECTBOX      0x4               SB_BAR.o
nodeingame          0x20              D_NET.o
sides               0x4               P_SETUP.o
glPJPmatrixd        0x80              ds_render.o
blockmap            0x4               P_SETUP.o
ds_display_menu     0x4               template.o
key_down            0x4               G_GAME.o
gametime            0x4               D_NET.o
save_p              0x4               G_GAME.o
key_up              0x4               G_GAME.o
snd_SBdma           0x4               I_SOUND.o
sendsave            0x4               G_GAME.o
tmxmove             0x4               P_MAP.o
blocklinks          0x4               P_SETUP.o
skytexturemid       0x4               R_MAIN.o
ds_quads            0x4               glMain.o
viewangle           0x4               R_MAIN.o
msgptr              0x10              CT_CHAT.o
remoteresend        0x20              D_NET.o
glGlobalData        0x4c              c:/devkitPro/libnds/lib\libnds9.a(videoGL.o)
leveltime           0x4               P_TICK.o
mousebforward       0x4               G_GAME.o
la_damage           0x4               P_MAP.o
startepisode        0x4               D_MAIN.o
gamemap             0x4               G_GAME.o
negonearray         0x280             R_THINGS.o
buttonlist          0x140             P_SWITCH.o
ds_display_top      0x4               template.o
viewx               0x4               R_MAIN.o
usejoystick         0x4               M_MISC.o
activeceilings      0x78              P_CEILNG.o
AmbSfxPtr           0x4               P_SPEC.o
resendto            0x20              D_NET.o
dirtybox            0x10              V_VIDEO.o
PatchINVBAR         0x4               SB_BAR.o
gameaction          0x1               G_GAME.o
mousex              0x4               G_GAME.o
PatchLIFEGEM        0x4               SB_BAR.o
lowfloor            0x4               P_MAPUTL.o
MallocFailureOk     0x4               Z_ZONE.o
sendpause           0x4               G_GAME.o
frameon             0x4               D_NET.o
mousearray          0x10              G_GAME.o
tmymove             0x4               P_MAP.o
PatchBLACKSQ        0x4               SB_BAR.o
bestslideline       0x4               P_MAP.o
usegamma            0x4               V_VIDEO.o
occlusion_buffer    0x100             ds_render.o
shiftdown           0x4               CT_CHAT.o
PatchLTFCTOP        0x4               SB_BAR.o
chatmodeon          0x4               CT_CHAT.o
centerxfrac         0x4               R_MAIN.o
PatchINVLFGEM1      0x4               SB_BAR.o
key_lookup          0x4               G_GAME.o
texturecomposite    0x4               R_DATA.o
floors_ds3          0x4               geometry.o
spechit             0x20              P_MAP.o
mainzone            0x4               Z_ZONE.o
inv_ptr             0x4               SB_BAR.o
skyiscale           0x4               R_MAIN.o
TimerGame           0x4               P_TICK.o
hscreen             0x4               D_MAIN.o
dclickstate2        0x4               G_GAME.o
c_subsectors        0x4               ds_render.o
oldnettics          0x4               D_NET.o
crushchange         0x4               P_MAP.o
secretexit          0x4               G_GAME.o
lightingVector      0xc               ds_render.o
fifo_datamsg_func   0x40              c:/devkitPro/libnds/lib\libnds9.a(fifosystem.o)
savedescription     0x20              G_GAME.o
fifo_address_queue  0x40              c:/devkitPro/libnds/lib\libnds9.a(fifosystem.o)
numsubsectors       0x4               P_SETUP.o
sightzstart         0x4               P_SIGHT.o
lastnettic          0x4               D_NET.o
skyIsVisible        0x4               ds_render.o
numspritelumps      0x4               R_DATA.o
key_speed           0x4               G_GAME.o
ticcount            0x4               I_IBM.o
lines               0x4               P_SETUP.o
PatchLTFACE         0x4               SB_BAR.o
snd_DesiredMusicDevice
                    0x4               I_SOUND.o
slidemo             0x4               P_MAP.o
bodyqueslot         0x4               P_ENEMY.o

Memory Configuration

Name             Origin             Length             Attributes
rom              0x08000000         0x02000000
ewram            0x02000000         0x003ff000
dtcm             0x0b000000         0x00004000
vectors          0x01000000         0x00000100
itcm             0x01000100         0x00007f00
*default*        0x00000000         0xffffffff

Linker script and memory map

                0x01000000                __vectors_start = 0x1000000
                0x01000100                __itcm_start = 0x1000100
                0x023ff000                __ewram_end = 0x23ff000
                0x023ff000                __eheap_end = 0x23ff000
                0x0b000000                __dtcm_start = 0xb000000
                0x0b004000                __dtcm_top = 0xb004000
                0x0b003ff8                __irq_flags = (__dtcm_top - 0x8)
                0x0b003ffc                __irq_vector = (__dtcm_top - 0x4)
                0x0b003f00                __sp_svc = (__dtcm_top - 0x100)
                0x0b003e00                __sp_irq = (__sp_svc - 0x100)
                0x0b003d00                __sp_usr = (__sp_irq - 0x100)

.init           0x02000000      0x23c
                0x02000000                __text_start = .
 *(.init)
 .init          0x02000000      0x230 c:/devkitpro/devkitarm/bin/../lib/gcc/arm-eabi/4.5.1/../../../../arm-eabi/lib/thumb/ds_arm9_crt0.o
                0x02000000                _start
 .init          0x02000230        0x4 c:/devkitpro/devkitarm/bin/../lib/gcc/arm-eabi/4.5.1/thumb/crti.o
                0x02000230                _init
 .init          0x02000234        0x8 c:/devkitpro/devkitarm/bin/../lib/gcc/arm-eabi/4.5.1/thumb/crtn.o
                0x0200023c                . = ALIGN (0x4)

.plt
 *(.plt)

.text           0x02000240    0x5a5d0
 *(EXCLUDE_FILE(*.itcm*) .text)
 .text          0x02000240        0x0 c:/devkitpro/devkitarm/bin/../lib/gcc/arm-eabi/4.5.1/../../../../arm-eabi/lib/thumb/ds_arm9_crt0.o
 .text          0x02000240        0x0 c:/devkitpro/devkitarm/bin/../lib/gcc/arm-eabi/4.5.1/thumb/crti.o
 .text          0x02000240       0x6c c:/devkitpro/devkitarm/bin/../lib/gcc/arm-eabi/4.5.1/thumb/crtbegin.o
 *fill*         0x020002ac        0x4 ff
 .text          0x020002b0     0x50e8 ds_render.o
                0x02000cb4                glColorTable
                0x020014c8                IR_AddWall
                0x020029e4                TransformAndClipSegment
                0x02002d30                fillOcculsionBuffer
                0x02002d98                displayOcclusionBuffer
                0x02002e20                fillOcculsionBuffer2
                0x02002fa0                IR_Subsector
                0x02003a78                dsVertex3fv
                0x02003aec                dsVertex3f
                0x02003b54                dsTexCoord2fv
                0x02003ba8                dsTexCoord2f
                0x02003bf4                __div64
                0x02003c68                IR_RenderSkyWall
                0x02004240                IR_RenderWalls
                0x0200460c                IR_RenderSprites
                0x02004940                IR_RenderPlayerView
 .text          0x02005398     0x1b90 glMain.o
                0x02005958                DS_VERTEX3FV
                0x02005970                R_AddLineGL
                0x020066e8                R_SubsectorGL
                0x02006878                R_RenderBSPNodeGL
                0x02006908                R_RenderBSPGL
                0x02006944                R_SetupFrameGL
                0x02006ae8                R_EndFrameGL
                0x02006af8                R_RenderView
                0x02006b78                draw_sub
                0x02006c74                draw_winding
                0x02006e78                draw_line
 .text          0x02006f28      0xec0 template.o
                0x02007af0                Sys_Init
                0x02007d78                main
 .text          0x02007de8     0x26f4 AM_MAP.o
                0x02007de8                AM_activateNewScale
                0x02007ebc                AM_saveScaleAndLoc
                0x02007f04                AM_restoreScaleAndLoc
                0x02007ff0                AM_findMinMaxBoundaries
                0x02008180                AM_changeWindowLoc
                0x020082f8                AM_initVariables
                0x0200853c                AM_loadPics
                0x02008560                AM_LevelInit
                0x02008614                AM_Stop
                0x0200863c                AM_Start
                0x020086b0                AM_minOutWindowScale
                0x020086e8                AM_maxOutWindowScale
                0x02008720                AM_Responder
                0x02008a24                AM_changeWindowScale
                0x02008a94                AM_doFollowPlayer
                0x02008b8c                AM_Ticker
                0x02008bf0                AM_clearFB
                0x02008f60                AM_clipMline
                0x02009370                AM_drawFline
                0x02009590                PUTDOT
                0x0200973c                DrawWuLine
                0x02009b98                AM_drawMline
                0x02009bcc                AM_drawGrid
                0x02009d2c                AM_drawWalls
                0x02009fc0                AM_rotate
                0x0200a054                AM_drawLineCharacter
                0x0200a1b8                AM_drawPlayers
                0x0200a2bc                AM_drawThings
                0x0200a340                AM_drawkeys
                0x0200a3dc                AM_drawCrosshair
                0x0200a418                AM_Drawer
 .text          0x0200a4dc      0x904 CT_CHAT.o
                0x0200a4dc                CT_Init
                0x0200a590                CT_Stop
                0x0200a5a4                CT_Responder
                0x0200a840                CT_Ticker
                0x0200aa80                CT_Drawer
                0x0200ab68                CT_queueChatChar
                0x0200abbc                CT_dequeueChatChar
                0x0200ac04                CT_AddChar
                0x0200acd4                CT_BackSpace
                0x0200ada0                CT_ClearChatMessage
 .text          0x0200ade0     0x1174 D_MAIN.o
                0x0200ade0                D_PostEvent
                0x0200ae20                D_ProcessEvents
                0x0200ae94                DrawMessage
                0x0200af08                D_Display
                0x0200b004                D_DoomLoop
                0x0200b0f0                D_PageTicker
                0x0200b114                D_PageDrawer
                0x0200b16c                D_AdvanceDemo
                0x0200b180                D_DoAdvanceDemo
                0x0200b2e8                D_StartTitle
                0x0200b30c                D_CheckRecordFrom
                0x0200b3f8                wadprintf
                0x0200b404                D_AddFile
                0x0200b544                hgotoxy
                0x0200b578                hput
                0x0200b5b4                hprintf
                0x0200b5c8                drawstatus
                0x0200b5d4                status
                0x0200b5f8                DrawThermo
                0x0200b600                tprintf
                0x0200b618                CheckAbortStartup
                0x0200b620                IncThermo
                0x0200b640                InitThermo
                0x0200b664                D_DoomMain
 .text          0x0200bf54     0x11c4 D_NET.o
                0x0200bf54                NetbufferSize
                0x0200bf6c                NetbufferChecksum
                0x0200bfd0                ExpandTics
                0x0200c05c                HSendPacket
                0x0200c1b8                HGetPacket
                0x0200c3a4                GetPackets
                0x0200c658                NetUpdate
                0x0200c890                CheckAbort
                0x0200c914                D_ArbitrateNetStart
                0x0200cb58                D_CheckNetGame
                0x0200cc9c                D_QuitNetGame
                0x0200cd70                TryRunTics
 .text          0x0200d118      0x664 F_FINALE.o
                0x0200d118                F_StartFinale
                0x0200d250                F_Responder
                0x0200d2a4                F_Ticker
                0x0200d300                F_TextWrite
                0x0200d478                F_DrawPatchCol
                0x0200d53c                F_DemonScroll
                0x0200d630                F_DrawUnderwater
                0x0200d6dc                F_Drawer
 .text          0x0200d77c     0x26a4 G_GAME.o
                0x0200d77c                G_BuildTiccmd
                0x0200e0b8                G_DoLoadLevel
                0x0200e214                G_Responder
                0x0200e578                G_Ticker
                0x0200e944                G_InitPlayer
                0x0200e96c                G_PlayerFinishLevel
                0x0200eabc                G_PlayerReborn
                0x0200ecac                G_CheckSpot
                0x0200ee3c                G_DeathMatchSpawnPlayer
                0x0200ef40                G_DoReborn
                0x0200f0d8                G_ScreenShot
                0x0200f0ec                G_ExitLevel
                0x0200f108                G_SecretExitLevel
                0x0200f124                G_DoCompleted
                0x0200f1e0                G_WorldDone
                0x0200f1f4                G_DoWorldDone
                0x0200f220                G_LoadGame
                0x0200f248                G_DoLoadGame
                0x0200f3bc                G_DeferedInitNew
                0x0200f400                G_DoNewGame
                0x0200f434                G_InitNew
                0x0200f608                G_ReadDemoTiccmd
                0x0200f6a0                G_WriteDemoTiccmd
                0x0200f750                G_RecordDemo
                0x0200f84c                G_DeferedPlayDemo
                0x0200f870                G_DoPlayDemo
                0x0200f940                G_TimeDemo
                0x0200f9dc                G_CheckDemoStatus
                0x0200fae4                G_SaveGame
                0x0200fb18                G_DoSaveGame
                0x0200fc88                SV_Open
                0x0200fd00                SV_Close
                0x0200fd78                SV_Write
                0x0200fdd0                SV_WriteByte
                0x0200fdec                SV_WriteWord
                0x0200fe08                SV_WriteLong
 .text          0x0200fe20        0x0 INFO.o
 .text          0x0200fe20     0x1a48 IN_LUDE.o
                0x0200fe20                IN_Start
                0x0200fe80                IN_WaitStop
                0x0200fea8                IN_Stop
                0x0200fed4                IN_InitStats
                0x020101e4                IN_LoadPics
                0x02010360                IN_UnloadPics
                0x020104d4                IN_Ticker
                0x0201061c                IN_CheckForSkip
                0x020106d0                IN_Drawer
                0x020107f0                IN_DrawStatBack
                0x0201085c                IN_DrawOldLevel
                0x02010ab8                IN_DrawYAH
                0x02010c8c                IN_DrawSingleStats
                0x02010fd8                IN_DrawCoopStats
                0x020111cc                IN_DrawDMStats
                0x020114a4                IN_DrawTime
                0x02011540                IN_DrawNumber
                0x020117d4                IN_DrTextB
 .text          0x02011868      0x9cc I_IBM.o
                0x0201191c                ibm_main
                0x02011948                DS_GetH2Tics
                0x0201197c                I_GetTime
                0x02011998                I_WaitVBL
                0x020119a8                aalignVal
                0x020119d8                ndsgetNextPaletteSlot
                0x02011a4c                ndsTexLoadPalVRAM
                0x02011a90                ndsTexLoadPal
                0x02011ad0                I_SetPalette
                0x02011bf4                I_Update
                0x02011bfc                I_InitGraphics
                0x02011c88                I_ShutdownGraphics
                0x02011c90                I_ReadScreen
                0x02011ca0                I_StartTic
                0x02011d18                I_ReadKeys
                0x02011d70                Sys_SendKeyEvents
                0x02011d78                I_StartFrame
                0x02011d84                I_TimerISR
                0x02011da0                I_StartupKeyboard
                0x02011da8                I_ShutdownKeyboard
                0x02011db0                I_ResetMouse
                0x02011dbc                I_StartupMouse
                0x02011dc4                I_ShutdownMouse
                0x02011dcc                I_ReadMouse
                0x02011f7c                WaitJoyButton
                0x02011f88                I_StartupJoystick
                0x02011f90                I_JoystickEvents
                0x02011f98                IO_SetTimer0
                0x02011fc4                IO_StartupTimer
                0x02011fcc                IO_ShutdownTimer
                0x02011fd4                I_Init
                0x02012010                I_Shutdown
                0x02012034                I_Error
                0x02012064                I_Quit
                0x02012090                I_ZoneBase
                0x02012114                I_InitDiskFlash
                0x0201211c                I_BeginRead
                0x02012124                I_EndRead
                0x0201212c                I_AllocLow
                0x02012158                I_InitNetwork
                0x020121c8                I_NetCmd
                0x020121e8                I_CheckExternDriver
                0x020121f0                I_ReadExternDriver
                0x020121f8                systemErrorExit
 .text          0x02012234      0x1b0 I_SOUND.o
                0x02012234                I_PauseSong
                0x02012244                I_ResumeSong
                0x02012254                I_SetMusicVolume
                0x02012264                I_SetSfxVolume
                0x0201227c                I_RegisterSong
                0x02012294                I_UnRegisterSong
                0x020122a8                I_QrySongPlaying
                0x020122c0                I_StopSong
                0x020122d4                I_PlaySong
                0x020122f0                I_GetSfxLumpNum
                0x02012324                I_StartSound
                0x0201233c                I_StopSound
                0x0201234c                I_SoundIsPlaying
                0x02012360                I_UpdateSoundParams
                0x02012374                I_sndArbitrateCards
                0x020123a0                I_StartupSound
                0x020123cc                I_ShutdownSound
                0x020123d4                I_SetChannels
 .text          0x020123e4     0x1d00 MN_MENU.o
                0x020123e4                MN_Init
                0x02012474                MN_DrTextA
                0x02012508                MN_TextAWidth
                0x02012590                MN_DrTextB
                0x02012624                MN_TextBWidth
                0x020126ac                MN_Ticker
                0x020126d4                MN_Drawer
                0x02012ad8                MN_LoadSlotText
                0x020132d8                MN_Responder
                0x02013e40                MN_ActivateMenu
                0x02013ed0                MN_DeactivateMenu
 .text          0x020140e4      0xb80 M_MISC.o
                0x020140e4                M_ValidEpisodeMap
                0x02014164                M_CheckParm
                0x020141b4                P_Random
                0x020141dc                M_Random
                0x02014204                M_ClearRandom
                0x02014224                M_ClearBox
                0x02014258                M_AddToBox
                0x020142bc                M_WriteFile
                0x02014320                M_ReadFile
                0x020143d0                M_FindResponseFile
                0x02014628                M_ForceUppercase
                0x02014680                M_SaveDefaults
                0x02014778                M_LoadDefaults
                0x02014a14                WritePCXfile
                0x02014b8c                M_ScreenShot
 .text          0x02014c64      0x454 P_CEILNG.o
                0x02014c64                T_MoveCeiling
                0x02014dbc                EV_DoCeiling
                0x02014f1c                P_AddActiveCeiling
                0x02014f58                P_RemoveActiveCeiling
                0x02014fb4                P_ActivateInStasisCeiling
                0x0201502c                EV_CeilingCrushStop
 .text          0x020150b8      0x65c P_DOORS.o
                0x020150b8                T_VerticalDoor
                0x0201529c                EV_DoDoor
                0x020153f4                EV_VerticalDoor
                0x02015630                P_SpawnDoorCloseIn30
                0x02015690                P_SpawnDoorRaiseIn5Mins
 *fill*         0x02015714        0x4 ff
 .text          0x02015718     0x3478 P_ENEMY.o
                0x02015718                P_InitMonsters
                0x0201572c                P_AddBossSpot
                0x020157a4                P_RecursiveSound
                0x020158cc                P_NoiseAlert
                0x02015904                P_CheckMeleeRange
                0x020159a0                P_CheckMissileRange
                0x02015a64                P_Move
                0x02015bd0                P_TryWalk
                0x02015c08                P_NewChaseDir
                0x02015ef8                P_LookForMonsters
                0x02015ffc                P_LookForPlayers
                0x020161c8                A_Look
                0x0201628c                A_Chase
                0x02016538                A_FaceTarget
                0x020165b8                A_Pain
                0x020165e0                A_DripBlood
                0x02016664                A_KnightAttack
                0x0201670c                A_ImpExplode
                0x020167d0                A_BeastPuff
                0x02016840                A_ImpMeAttack
                0x02016898                A_ImpMsAttack
                0x020169a4                A_ImpMsAttack2
                0x02016a10                A_ImpDeath
                0x02016a58                A_ImpXDeath1
                0x02016a9c                A_ImpXDeath2
                0x02016ad8                P_UpdateChicken
                0x02016c6c                A_ChicAttack
                0x02016cc8                A_ChicLook
                0x02016cf4                A_ChicChase
                0x02016d20                A_ChicPain
                0x02016d54                A_Feathers
                0x02016e2c                A_MummyAttack
                0x02016e9c                A_MummyAttack2
                0x02016f10                A_MummyFX1Seek
                0x02016f34                A_MummySoul
                0x02016f6c                A_Sor1Pain
                0x02016f88                A_Sor1Chase
                0x02016fbc                A_Srcr1Attack
                0x020170d4                A_SorcererRise
                0x02017134                P_DSparilTeleport
                0x02017274                A_Srcr2Decide
                0x020172cc                A_Srcr2Attack
                0x02017398                A_BlueSpark
                0x02017410                A_GenWizard
                0x020174e4                A_Sor2DthInit
                0x020174fc                A_Sor2DthLoop
                0x0201752c                A_SorZap
                0x02017544                A_SorRise
                0x0201755c                A_SorDSph
                0x02017574                A_SorDExp
                0x0201758c                A_SorDBon
                0x020175a4                A_SorSightSnd
                0x020175bc                A_MinotaurAtk1
                0x0201762c                A_MinotaurDecide
                0x0201777c                A_MinotaurCharge
                0x020177e8                A_MinotaurAtk2
                0x020178c4                A_MinotaurAtk3
                0x0201797c                A_MntrFloorFire
                0x020179ec                A_BeastAttack
                0x02017a5c                A_HeadAttack
                0x02017c18                A_WhirlwindSeek
                0x02017cec                A_HeadIceImpact
                0x02017d9c                A_HeadFireGrow
                0x02017de4                A_SnakeAttack
                0x02017e38                A_SnakeAttack2
                0x02017e8c                A_ClinkAttack
                0x02017eec                A_GhostOff
                0x02017f0c                A_WizAtk1
                0x02017f34                A_WizAtk2
                0x02017f58                A_WizAtk3
                0x02018014                A_Scream
                0x020180b8                P_DropItem
                0x02018154                A_NoBlocking
                0x02018240                A_Explode
                0x020182bc                A_PodPain
                0x02018364                A_RemovePod
                0x02018394                A_MakePod
                0x02018438                P_Massacre
                0x020184a0                A_BossDeath
                0x0201856c                A_ESound
                0x020185a8                A_SpawnTeleGlitter
                0x02018600                A_SpawnTeleGlitter2
                0x02018658                A_AccTeleGlitter
                0x02018690                A_InitKeyGizmo
                0x02018708                A_VolcanoSet
                0x02018728                A_VolcanoBlast
                0x02018828                A_VolcBallImpact
                0x02018924                A_SkullPop
                0x020189dc                A_CheckSkullFloor
                0x02018a08                A_CheckSkullDone
                0x02018a34                A_CheckBurnGone
                0x02018a60                A_FreeTargMobj
                0x02018acc                A_AddPlayerCorpse
                0x02018b3c                A_FlameSnd
                0x02018b54                A_HideThing
                0x02018b70                A_UnHideThing
 .text          0x02018b90      0x8b4 P_FLOOR.o
                0x02018b90                T_MovePlane
                0x02018de4                T_MoveFloor
                0x02018ec0                EV_DoFloor
                0x02019288                EV_BuildStairs
 .text          0x02019444     0x1f80 P_INTER.o
                0x02019444                P_SetMessage
                0x020194a4                P_GiveAmmo
                0x020195f0                P_GiveWeapon
                0x02019758                P_GiveBody
                0x020197b4                P_GiveArmor
                0x020197ec                P_GiveKey
                0x02019880                P_GivePower
                0x02019a28                P_GiveArtifact
                0x02019b2c                P_SetDormantArtifact
                0x02019b94                A_RestoreArtifact
                0x02019bcc                P_HideSpecialThing
                0x02019c04                A_RestoreSpecialThing1
                0x02019c44                A_RestoreSpecialThing2
                0x02019c74                P_TouchSpecialThing
                0x0201a4e4                P_KillMobj
                0x0201a744                P_MinotaurSlam
                0x0201a808                P_TouchWhirlwind
                0x0201a8d0                P_ChickenMorphPlayer
                0x0201aa08                P_ChickenMorph
                0x0201ab08                P_AutoUseChaosDevice
                0x0201ab68                P_AutoUseHealth
                0x0201ad40                P_DamageMobj
 .text          0x0201b3c4      0x4e4 P_LIGHTS.o
                0x0201b3c4                T_LightFlash
                0x0201b43c                P_SpawnLightFlash
                0x0201b4b8                T_StrobeFlash
                0x0201b51c                P_SpawnStrobeFlash
                0x0201b5bc                EV_StartLightStrobing
                0x0201b614                EV_TurnTagLightsOff
                0x0201b6cc                EV_LightTurnOn
                0x0201b780                T_Glow
                0x0201b840                P_SpawnGlowingLight
 .text          0x0201b8a8     0x2348 P_MAP.o
                0x0201b8a8                PIT_StompThing
                0x0201b94c                P_TeleportMove
                0x0201baec                PIT_CheckLine
                0x0201bc74                PIT_CheckThing
                0x0201c09c                PIT_CheckOnmobjZ
                0x0201c168                P_TestMobjLocation
                0x0201c1dc                P_CheckPosition
                0x0201c3e0                P_CheckOnmobj
                0x0201c640                P_FakeZMovement
                0x0201c874                CheckMissileImpact
                0x0201c8f4                P_TryMove
                0x0201cb9c                P_ThingHeightClip
                0x0201cc30                P_HitSlideLine
                0x0201cd54                PTR_SlideTraverse
                0x0201ce50                P_SlideMove
                0x0201d0dc                PTR_AimTraverse
                0x0201d2bc                PTR_ShootTraverse
                0x0201d620                P_AimLineAttack
                0x0201d6fc                P_LineAttack
                0x0201d7d4                PTR_UseTraverse
                0x0201d848                P_UseLines
                0x0201d8c8                PIT_RadiusAttack
                0x0201d9a8                P_RadiusAttack
                0x0201da94                PIT_ChangeSector
                0x0201db80                P_ChangeSector
 .text          0x0201dbf0      0xd9c P_MAPUTL.o
                0x0201dbf0                P_AproxDistance
                0x0201dc38                P_PointOnLineSide
                0x0201dcec                P_BoxOnLineSide
                0x0201de2c                P_PointOnDivlineSide
                0x0201df04                P_MakeDivline
                0x0201df38                P_InterceptVector
                0x0201dfcc                P_LineOpening
                0x0201e064                P_UnsetThingPosition
                0x0201e14c                P_SetThingPosition
                0x0201e250                P_BlockLinesIterator
                0x0201e31c                P_BlockThingsIterator
                0x0201e39c                PIT_AddLineIntercepts
                0x0201e4dc                PIT_AddThingIntercepts
                0x0201e60c                P_TraverseIntercepts
                0x0201e6b0                P_PathTraverse
 .text          0x0201e98c     0x263c P_MOBJ.o
                0x0201e98c                P_SetMobjState
                0x0201ea08                P_SetMobjStateNF
                0x0201ea74                P_ExplodeMissile
                0x0201eb14                P_FloorBounceMissile
                0x0201eb58                P_ThrustMobj
                0x0201ebb8                P_FaceMobj
                0x0201ec40                P_SeekerMissile
                0x0201ed94                P_XYMovement
                0x0201f270                P_ZMovement
                0x0201f60c                P_NightmareRespawn
                0x0201f77c                P_BlasterMobjThinker
                0x0201f8f8                P_MobjThinker
                0x0201fb2c                P_SpawnMobj
                0x0201fd50                P_RemoveMobj
                0x0201fd78                P_SpawnPlayer
                0x0201ffcc                P_SpawnMapThing
                0x020204d8                P_SpawnPuff
                0x0202056c                P_BloodSplatter
                0x020205d0                P_RipperBlood
                0x02020674                P_GetThingFloorType
                0x020206a0                P_HitFloor
                0x02020830                P_CheckMissileSpawn
                0x02020898                P_SpawnMissile
                0x02020a54                P_SpawnMissileAngle
                0x02020b78                P_SpawnPlayerMissile
                0x02020de8                P_SPMAngle
                0x02020f8c                A_ContMobjSound
 .text          0x02020fc8      0x5f8 P_PLATS.o
                0x02020fc8                T_PlatRaise
                0x020211a4                EV_DoPlat
                0x02021410                P_ActivateInStasis
                0x02021488                EV_StopPlat
                0x02021510                P_AddActivePlat
                0x02021558                P_RemoveActivePlat
 .text          0x020215c0     0x2620 P_PSPR.o
                0x020215c0                P_OpenWeapons
                0x020215d4                P_AddMaceSpot
                0x02021650                P_RepositionMace
                0x020216d8                P_CloseWeapons
                0x0202174c                P_SetPsprite
                0x020217f8                P_ActivateBeak
                0x0202183c                P_PostChickenWeapon
                0x020218ac                P_BringUpWeapon
                0x02021964                P_CheckAmmo
                0x02021b68                P_FireWeapon
                0x02021c44                P_DropWeapon
                0x02021cbc                A_WeaponReady
                0x02021e70                P_UpdateBeak
                0x02021e94                A_BeakReady
                0x02021f3c                A_ReFire
                0x02021fa4                A_Lower
                0x0202202c                A_BeakRaise
                0x02022074                A_Raise
                0x02022114                P_BulletSlope
                0x020221c8                A_BeakAttackPL1
                0x0202229c                A_BeakAttackPL2
                0x02022370                A_StaffAttackPL1
                0x0202241c                A_StaffAttackPL2
                0x020224c8                A_FireBlasterPL1
                0x02022574                A_FireBlasterPL2
                0x020225d4                A_FireGoldWandPL1
                0x02022674                A_FireGoldWandPL2
                0x0202275c                A_FireMacePL1B
                0x02022874                A_FireMacePL1
                0x02022918                A_MacePL1Check
                0x020229b4                A_MaceBallImpact
                0x02022a78                A_MaceBallImpact2
                0x02022c6c                A_FireMacePL2
                0x02022d08                A_DeathBallImpact
                0x02022eac                A_SpawnRippers
                0x02022f54                A_FireCrossbowPL1
                0x02022fb8                A_FireCrossbowPL2
                0x0202304c                A_BoltSpark
                0x020230b4                A_FireSkullRodPL1
                0x02023114                A_FireSkullRodPL2
                0x020231a0                A_SkullRodPL2Seek
                0x020231c4                A_AddPlayerRain
                0x020232b8                A_SkullRodStorm
                0x02023418                A_RainImpact
                0x02023460                A_HideInCeiling
                0x0202347c                A_FirePhoenixPL1
                0x02023514                A_PhoenixPuff
                0x02023614                A_InitPhoenixPL2
                0x02023630                A_FirePhoenixPL2
                0x020237d0                A_ShutdownPhoenixPL2
                0x020237f4                A_FlameEnd
                0x02023838                A_FloatPuff
                0x02023880                A_GauntletAttack
                0x02023ab4                A_Light0
                0x02023ad0                A_Light1
                0x02023aec                A_Light2
                0x02023b08                P_SetupPsprites
                0x02023b54                P_MovePsprites
 .text          0x02023be0     0x164c P_SETUP.o
                0x02023be0                P_LoadVertexes
                0x02023d1c                P_LoadSegs
                0x02023f4c                P_LoadSubsectors
                0x02024010                P_LoadSectors
                0x0202415c                P_LoadNodes
                0x020242d4                P_LoadThings
                0x02024444                P_LoadLineDefs
                0x020246d0                P_LoadSideDefs
                0x0202481c                P_LoadBlockMap
                0x0202491c                P_GroupLines
                0x02024ba0                BuildSideSegs
                0x02024f2c                P_SetupLevel
                0x02025208                P_Init
 .text          0x0202522c      0x6c8 P_SIGHT.o
                0x0202522c                PTR_SightTraverse
                0x020252f4                P_SightBlockLinesIterator
                0x0202544c                P_SightTraverseIntercepts
                0x02025518                P_SightPathTraverse
                0x02025804                P_CheckSight
 .text          0x020258f4     0x1568 P_SPEC.o
                0x020258f4                P_InitLava
                0x0202591c                P_InitTerrainTypes
                0x020259b8                P_InitPicAnims
                0x02025b60                getSide
                0x02025bb0                getSector
                0x02025c00                twoSided
                0x02025c38                getNextSector
                0x02025c74                P_FindLowestFloorSurrounding
                0x02025cdc                P_FindHighestFloorSurrounding
                0x02025d44                P_FindNextHighestFloor
                0x02025dfc                P_FindLowestCeilingSurrounding
                0x02025e64                P_FindHighestCeilingSurrounding
                0x02025ec8                P_FindSectorFromLineTag
                0x02025f20                P_FindMinSurroundingLight
                0x02025f90                P_CrossSpecialLine
                0x020263bc                P_ShootSpecialLine
                0x02026448                P_PlayerInSpecialSector
                0x0202661c                P_UpdateSpecials
                0x020268ec                EV_DoDonut
                0x02026a5c                P_SpawnSpecials
                0x02026c34                P_InitAmbientSound
                0x02026c6c                P_AddAmbientSfx
                0x02026cb4                P_AmbientSound
 .text          0x02026e5c      0x894 P_SWITCH.o
                0x02026e5c                P_InitSwitchList
                0x02026f4c                P_StartButton
                0x02027008                P_ChangeSwitchTexture
                0x020271e0                P_UseSpecialLine
 .text          0x020276f0      0x378 P_TELEPT.o
                0x020276f0                P_Teleport
                0x02027974                EV_Teleport
 .text          0x02027a68      0xebc P_TICK.o
                0x02027a68                P_ArchivePlayers
                0x02027b90                P_UnArchivePlayers
                0x02027cb8                P_ArchiveWorld
                0x02027e40                P_UnArchiveWorld
                0x02027ff4                P_ArchiveThinkers
                0x020280b4                P_UnArchiveThinkers
                0x02028208                P_ArchiveSpecials
                0x020284f8                P_UnArchiveSpecials
                0x020287c0                P_InitThinkers
                0x020287dc                P_AddThinker
                0x0202880c                P_RemoveThinker
                0x02028824                P_AllocateThinker
                0x02028834                P_RunThinkers
                0x02028894                P_Ticker
 .text          0x02028924     0x17bc P_USER.o
                0x02028924                P_Thrust
                0x02028a50                P_CalcHeight
                0x02028c90                P_MovePlayer
                0x02028fd8                P_DeathThink
                0x02029258                P_ChickenPlayerThink
                0x02029314                P_GetPlayerNum
                0x02029354                P_UndoPlayerChicken
                0x02029518                P_PlayerThink
                0x02029ab4                P_ArtiTele
                0x02029c04                P_PlayerNextArtifact
                0x02029ca4                P_PlayerRemoveArtifact
                0x02029dd8                P_PlayerUseArtifact
                0x02029e78                P_UseArtifact
 .text          0x0202a0e0     0x1244 R_DATA.o
                0x0202a0e0                R_DrawColumnInCache
                0x0202a168                R_GenerateComposite
                0x0202a314                R_GenerateLookup
                0x0202a570                R_GetColumn
                0x0202a618                R_InitTextures
                0x0202ab4c                R_InitFlats
                0x0202ac20                R_InitSpriteLumps
                0x0202ade4                R_InitColormaps
                0x0202ae44                R_InitData
                0x0202ae90                R_FlatNumForName
                0x0202aee8                R_CheckTextureNumForName
                0x0202af4c                R_TextureNumForName
                0x0202af80                R_PrecacheLevel
 .text          0x0202b324      0x7cc R_MAIN.o
                0x0202b324                R_AddPointToBox
                0x0202b384                R_PointOnSide
                0x0202b458                R_PointOnSegSide
                0x0202b538                SlopeDiv
                0x0202b580                R_PointToAngle
                0x0202b6e0                R_PointToAngle2
                0x0202b718                R_PointToDist
                0x0202b7a8                R_InitPointToAngle
                0x0202b7b0                R_InitTables
                0x0202b7b8                R_SetViewSize
                0x0202b7e8                R_ExecuteSetViewSize
                0x0202b8a0                R_InitSkyMap
                0x0202b8d8                R_Init
                0x0202b968                R_PointInSubsector
                0x0202b9ec                R_SetupFrame
                0x0202bad4                R_RenderPlayerView
 .text          0x0202baf0      0x508 R_THINGS.o
                0x0202baf0                R_InstallSpriteLump
                0x0202bcd8                R_InitSpriteDefs
                0x0202bfb8                R_InitSprites
 .text          0x0202bff8     0x2160 SB_BAR.o
                0x0202bff8                SB_Init
                0x0202c3d4                SB_Ticker
                0x0202cc44                SB_Drawer
                0x0202cf9c                SB_PaletteFlash
                0x0202d968                SB_Responder
 .text          0x0202e158        0x0 SOUNDS.o
 .text          0x0202e158        0x0 TABLES.o
 .text          0x0202e158       0x80 V_VIDEO.o
                0x0202e158                V_DrawPatch
                0x0202e16c                V_DrawFuzzPatch
                0x0202e180                V_DrawShadowedPatch
                0x0202e194                V_DrawRawScreen
                0x0202e1bc                V_Init
 .text          0x0202e1d8      0x814 W_WAD.o
                0x0202e1d8                filelength
                0x0202e210                ExtractFileBase
                0x0202e2d0                W_AddFile
                0x0202e5d8                W_InitMultipleFiles
                0x0202e670                W_InitFile
                0x0202e698                W_NumLumps
                0x0202e6ac                W_CheckNumForName
                0x0202e758                W_GetNumForName
                0x0202e794                W_LumpLength
                0x0202e7ec                W_ReadLump
                0x0202e8f4                W_CacheLumpNum
                0x0202e9c4                W_CacheLumpName
 .text          0x0202e9ec      0x660 Z_ZONE.o
                0x0202e9ec                Z_ClearZone
                0x0202ea44                Z_Init
                0x0202ead0                Z_Free
                0x0202ebac                Z_Malloc
                0x0202ed08                Z_FreeTags
                0x0202ed68                Z_DumpHeap
                0x0202ee54                Z_FileDumpHeap
                0x0202ef28                Z_CheckHeap
                0x0202efac                Z_ChangeTag2
                0x0202effc                Z_FreeMemory
 .text          0x0202f04c     0x17e0 ds_textures.o
                0x0202f178                ds_init_textures
                0x0202f2d4                ds_print_blocks
                0x0202f39c                ds_lock_bank
                0x0202f420                ds_unlock_bank
                0x0202f4a4                ds_adjust_size
                0x0202f50c                ds_find_free_block
                0x0202f5b8                ds_is_texture_resident
                0x0202f618                ds_scale_texture
                0x0202f76c                ds_block_address
                0x0202f7a4                ds_load_block
                0x0202f7ec                ds_tex_size
                0x0202f848                ds_tex_parameters
                0x0202f880                ds_load_texture
                0x0202f984                ds_load_map_texture
                0x0202fcec                ds_load_map_flat
                0x0202fed0                R_DrawColumnInCacheGL
                0x0202ff58                ds_load_sprite
                0x020302e8                ds_init_texture
                0x02030484                ds_init_flat
                0x020304c4                ds_init_sprite
                0x02030750                ds_load_blank_tex
 *fill*         0x0203082c        0x4 ff
 .text          0x02030830      0xe48 geometry.o
                0x02030aac                add_sub_winding
                0x02030ae4                waitforit2
                0x02030b34                waitforit
                0x02030b3c                add_line
                0x02030b5c                add_winding
                0x02030bb8                normalize_plane
                0x02030c88                faces_front
                0x02030e7c                R_PointsOnNode
                0x02030fc4                ds_clip_to_subsector
                0x020311c4                ds_gen_floors_r
                0x02031388                ds_base_winding
                0x020314bc                ds_gen_floors
                0x02031564                draw_floors
                0x020315a4                draw_lines
                0x020315f0                draw_winding_path_r
                0x02031620                draw_gen_subs
 .text          0x02031678     0x1210 polylib.o
                0x020318f4                AllocWinding
                0x02031930                CopyWinding
                0x02031994                VertexSubtract
                0x020319d8                VertexAdd
                0x02031a1c                VertexCopy
                0x02031a40                BaseWinding
                0x02031a9c                ClipWinding2
                0x020321b4                ClipWinding
                0x02032844                ChopWinding
 .text          0x02032888      0xad0 soundst.o
                0x02032888                S_Start
                0x0203290c                S_StartSong
                0x02032a04                S_StartSound
                0x02032a14                S_StartSoundAtVolume
                0x02032a28                S_StopSoundID
                0x02032ba0                S_StopSound
                0x02032c80                S_SoundLink
                0x02032cd4                S_PauseSound
                0x02032cec                S_ResumeSound
                0x02032d04                S_UpdateSounds
                0x02033138                S_Init
                0x02033190                S_GetChannelInfo
                0x02033274                S_SetMaxVolume
                0x02033300                S_SetMusicVolume
                0x02033350                S_ShutDown
 .text          0x02033358        0x0 hexenarm.o
 .text          0x02033358      0x348 c:/devkitPro/libnds/lib\libfat.a(libfat.o)
                0x02033358                fatMount
                0x02033410                fatMountSimple
                0x02033424                fatUnmount
                0x0203345c                fatInit
                0x020335b8                fatInitDefault
                0x020335c4                fatGetVolumeLabel
 .text          0x020336a0      0x6d4 c:/devkitPro/libnds/lib\libfat.a(partition.o)
                0x020336bc                FindFirstValidPartition
                0x02033868                _FAT_partition_getPartitionFromPath
                0x0203387c                _FAT_partition_createFSinfo
                0x02033948                _FAT_partition_readFSinfo
                0x02033a08                _FAT_partition_constructor
                0x02033c80                _FAT_partition_writeFSinfo
                0x02033d34                _FAT_partition_destructor
 .text          0x02033d74      0x4bc c:/devkitPro/libnds/lib\libfat.a(cache.o)
                0x02033e74                _FAT_cache_constructor
                0x02033f10                _FAT_cache_readSectors
                0x02033f6c                _FAT_cache_readPartialSector
                0x02033fb4                _FAT_cache_readLittleEndianValue
                0x02034010                _FAT_cache_writePartialSector
                0x02034060                _FAT_cache_writeLittleEndianValue
                0x020340a8                _FAT_cache_eraseWritePartialSector
                0x0203410c                _FAT_cache_writeSectors
                0x02034178                _FAT_cache_flush
                0x020341d0                _FAT_cache_destructor
                0x02034204                _FAT_cache_invalidate
 .text          0x02034230     0x1414 c:/devkitPro/libnds/lib\libfat.a(directory.o)
                0x02034454                _FAT_directory_entryGetCluster
                0x0203447c                _FAT_directory_getNextEntry
                0x0203474c                _FAT_directory_getFirstEntry
                0x0203476c                _FAT_directory_getRootEntry
                0x020347c8                _FAT_directory_getVolumeLabel
                0x0203487c                _FAT_directory_entryFromPosition
                0x020349c4                _FAT_directory_entryFromPath
                0x02034bd4                _FAT_directory_removeEntry
                0x02034ca8                _FAT_directory_addEntry
                0x0203554c                _FAT_directory_chdir
                0x02035588                _FAT_directory_entryStat
 .text          0x02035644        0x8 c:/devkitPro/libnds/lib\libfat.a(disc.o)
 .text          0x0203564c      0x924 c:/devkitPro/libnds/lib\libfat.a(fatdir.o)
                0x0203564c                _FAT_stat_r
                0x020356ec                _FAT_link_r
                0x020356f8                _FAT_unlink_r
                0x02035870                _FAT_chdir_r
                0x020358e0                _FAT_rename_r
                0x02035ab8                _FAT_mkdir_r
                0x02035d30                _FAT_statvfs_r
                0x02035dbc                _FAT_diropen_r
                0x02035e80                _FAT_dirreset_r
                0x02035ecc                _FAT_dirnext_r
                0x02035f50                _FAT_dirclose_r
 .text          0x02035f70     0x123c c:/devkitPro/libnds/lib\libfat.a(fatfile.o)
                0x020361e8                _FAT_open_r
                0x020364f8                _FAT_syncToDisc
                0x020365d4                _FAT_close_r
                0x02036640                _FAT_read_r
                0x020369a8                _FAT_write_r
                0x02036e2c                _FAT_seek_r
                0x02036f7c                _FAT_fstat_r
                0x02037018                _FAT_ftruncate_r
                0x0203716c                _FAT_fsync_r
 .text          0x020371ac      0x434 c:/devkitPro/libnds/lib\libfat.a(file_allocation_table.o)
                0x020372c0                _FAT_fat_nextCluster
                0x0203739c                _FAT_fat_linkFreeCluster
                0x02037430                _FAT_fat_linkFreeClusterCleared
                0x020374a0                _FAT_fat_clearLinks
                0x02037500                _FAT_fat_trimChain
                0x02037584                _FAT_fat_lastCluster
                0x020375b8                _FAT_fat_freeClusterCount
 .text          0x020375e0       0xc8 c:/devkitPro/libnds/lib\libfat.a(filetime.o)
                0x020375e0                _FAT_filetime_getTimeFromRTC
                0x02037628                _FAT_filetime_getDateFromRTC
                0x02037670                _FAT_filetime_to_time_t
 .text          0x020376a8       0x10 c:/devkitPro/libnds/lib\libfat.a(lock.o)
                0x020376a8                _FAT_lock_init
                0x020376ac                _FAT_lock_deinit
                0x020376b0                _FAT_lock
                0x020376b4                _FAT_unlock
 .text          0x020376b8      0x318 c:/devkitPro/libnds/lib\libnds9.a(background.o)
                0x020376b8                bgIsText
                0x020376c4                checkIfText
                0x02037724                bgUpdate
                0x02037844                bgInit_call
                0x02037908                bgInitSub_call
 .text          0x020379d0      0xa2c c:/devkitPro/libnds/lib\libnds9.a(console.o)
                0x02037a64                nocash_write
                0x02037a74                consoleGetDefault
                0x02037a80                consoleSelect
                0x02037a90                consoleDebugInit
                0x02037ae0                consolePrintChar
                0x02037c80                consoleLoadFont
                0x02037f18                consoleSetFont
                0x02037f38                consoleInit
                0x020380b0                consoleDemoInit
                0x020380f4                con_write
                0x020383c8                consoleClear
                0x020383d8                consoleSetWindow
 .text          0x020383fc      0x354 c:/devkitPro/libnds/lib\libnds9.a(gurumeditation.o)
                0x020383fc                ARMShift
                0x02038448                getExceptionAddress
                0x0203861c                guruMeditationDump
                0x02038740                defaultExceptionHandler
 .text          0x02038750       0xf8 c:/devkitPro/libnds/lib\libnds9.a(keys.o)
                0x02038750                scanKeys
                0x020387c0                keysHeld
                0x020387cc                keysDown
                0x020387dc                keysDownRepeat
                0x020387ec                keysSetRepeat
                0x02038804                keysUp
                0x02038814                keysCurrent
 .text          0x02038848       0x24 c:/devkitPro/libnds/lib\libnds9.a(sassert.o)
                0x02038848                __sassert
 .text          0x0203886c      0x204 c:/devkitPro/libnds/lib\libnds9.a(sound.o)
                0x0203886c                micBufferHandler
                0x020388a0                soundEnable
                0x020388b0                soundDisable
                0x020388c0                soundPlayPSG
                0x020388f4                soundPlayNoise
                0x02038928                soundPlaySample
                0x0203898c                soundPause
                0x020389a0                soundKill
                0x020389b4                soundResume
                0x020389c8                soundSetVolume
                0x020389dc                soundSetPan
                0x020389ec                soundSetFreq
                0x02038a00                soundSetWaveDuty
                0x02038a14                soundMicRecord
                0x02038a60                soundMicOff
 .text          0x02038a70       0x4c c:/devkitPro/libnds/lib\libnds9.a(touch.o)
                0x02038a70                touchRead
                0x02038a98                touchReadXY
 .text          0x02038abc      0x238 c:/devkitPro/libnds/lib\libnds9.a(trig.o)
                0x02038abc                asinComp
                0x02038ae0                sinLutLookup
                0x02038b1c                sinLerp
                0x02038b50                cosLerp
                0x02038b68                tanLutLookup
                0x02038ba0                tanLerp
                0x02038c50                asinLerp
                0x02038cb8                acosLerp
                0x02038cd0                atanComp
 .text          0x02038cf4      0x148 c:/devkitPro/libnds/lib\libnds9.a(video.o)
                0x02038cf4                vramSetPrimaryBanks
                0x02038d38                vramSetMainBanks
                0x02038d7c                vramSetBanks_EFG
                0x02038db4                vramRestorePrimaryBanks
                0x02038dc0                vramRestoreMainBanks
                0x02038dcc                vramRestoreBanks_EFG
                0x02038dd8                setBrightness
                0x02038e18                vramDefault
 .text          0x02038e3c     0x14b8 c:/devkitPro/libnds/lib\libnds9.a(videoGL.o)
                0x02038e3c                glGetGlobals
                0x02038e44                glRotatef32i
                0x02039120                glMaterialf
                0x02039190                glTexCoord2f32
                0x02039204                vramBlock_init
                0x02039270                vramBlock_Construct
                0x02039298                vramBlock_terminate
                0x020392c4                vramBlock_Deconstruct
                0x020392d8                vramBlock__allocateBlock
                0x02039438                vramBlock__deallocateBlock
                0x02039550                vramBlock_examineSpecial
                0x0203978c                vramBlock_allocateSpecial
                0x020397f8                vramBlock_allocateBlock
                0x02039830                vramBlock_deallocateBlock
                0x02039874                vramBlock_deallocateAll
                0x02039884                vramBlock_getAddr
                0x02039898                vramBlock_getSize
                0x020398ac                glInit_C
                0x02039a4c                glResetTextures
                0x02039ad4                removePaletteFromTexture
                0x02039b44                glGenTextures
                0x02039be0                glDeleteTextures
                0x02039cb8                vramGetBank
                0x02039d78                glBindTexture
                0x02039ddc                glColorTableEXT
                0x02039f44                glAssignColorTable
                0x02039fb8                glTexParameter
                0x02039ff0                glGetTexturePointer
                0x0203a010                glGetTexParameter
                0x0203a030                glTexImage2D
 .text          0x0203a2f4      0x298 c:/devkitPro/libnds/lib\libnds9.a(dldi.o)
                0x0203a2f4                dldiGetInternal
                0x0203a32c                dldiIsValid
                0x0203a364                dldiFixDriverAddresses
                0x0203a488                dldiLoadFromFile
                0x0203a580                dldiFree
 .text          0x0203a58c      0x108 c:/devkitPro/libnds/lib\libnds9.a(dsi_sd.o)
                0x0203a58c                sdio_IsInserted
                0x0203a59c                sdio_ClearStatus
                0x0203a5ac                sdio_Shutdown
                0x0203a5bc                sdio_WriteSectors
                0x0203a610                sdio_ReadSectors
                0x0203a664                sdio_Startup
 .text          0x0203a694      0x14c c:/devkitPro/libnds/lib\libnds9.a(initSystem.o)
                0x0203a694                initSystem
 .text          0x0203a7e0      0xc98 c:/devkitPro/libnds/lib\libnds9.a(fifosystem.o)
                0x0203aa50                fifoSendAddress
                0x0203aa7c                fifoSendValue32
                0x0203aabc                fifoSendDatamsg
                0x0203ab34                fifoGetAddress
                0x0203aba4                fifoSetAddressHandler
                0x0203ac18                fifoGetValue32
                0x0203ac84                fifoSetValue32Handler
                0x0203acf8                fifoGetDatamsg
                0x0203b188                fifoSetDatamsgHandler
                0x0203b220                fifoCheckAddress
                0x0203b244                fifoCheckDatamsg
                0x0203b268                fifoCheckValue32
                0x0203b28c                fifoInit
 .text          0x0203b478      0x1cc c:/devkitPro/libnds/lib\libnds9.a(interrupts.o)
                0x0203b478                irqDummy
                0x0203b47c                irqSet
                0x0203b4e8                irqInit
                0x0203b534                irqInitHandler
                0x0203b564                irqEnable
                0x0203b5c4                irqDisable
                0x0203b618                irqClear
 .text          0x0203b644       0x40 c:/devkitPro/libnds/lib\libnds9.a(libnds_exit.o)
                0x0203b648                __libnds_exit
 .text          0x0203b684       0x70 c:/devkitPro/libnds/lib\libnds9.a(dcache.o)
                0x0203b684                DC_FlushAll
                0x0203b6b0                DC_FlushRange
                0x0203b6cc                DC_InvalidateAll
                0x0203b6d8                DC_InvalidateRange
 .text          0x0203b6f4       0xdc c:/devkitPro/libnds/lib\libnds9.a(exceptionHandler.o)
                0x0203b6f4                getCPSR
                0x0203b6fc                enterException
                0x0203b770                exceptionC
                0x0203b774                exceptionStack
                0x0203b778                exceptionRegisters
 *fill*         0x0203b7d0       0x30 ff
 .text          0x0203b800     0x8000 c:/devkitPro/libnds/lib\libnds9.a(dldi_stub.o)
                0x0203b800                _io_dldi_stub
 .text          0x02043800      0x1b4 c:/devkitPro/libnds/lib\libnds9.a(mpu_setup.o)
                0x02043800                __libnds_mpu_setup
                0x02043940                memCached
                0x02043958                memUncached
 *fill*         0x020439b4        0xc ff
 .text          0x020439c0       0x70 c:/devkitPro/libnds/lib\libnds9.a(biosCalls.o)
                0x020439c0                swiDelay
                0x020439c4                swiIntrWait
                0x020439c8                swiWaitForVBlank
                0x020439cc                swiSleep
                0x020439d0                swiChangeSoundBias
                0x020439d4                swiDivide
                0x020439d8                swiRemainder
                0x020439de                swiDivMod
                0x020439ea                swiCopy
                0x020439ee                swiFastCopy
                0x020439f2                swiSqrt
                0x020439f6                swiCRC16
                0x020439fa                swiIsDebugger
                0x020439fe                swiUnpackBits
                0x02043a02                swiDecompressLZSSWram
                0x02043a06                swiDecompressLZSSVramNTR
                0x02043a0a                swiDecompressLZSSVramTWL
                0x02043a0e                swiDecompressHuffman
                0x02043a12                swiDecompressRLEWram
                0x02043a16                swiDecompressRLEVram
                0x02043a1a                swiWaitForIRQ
                0x02043a1e                swiDecodeDelta8
                0x02043a22                swiDecodeDelta16
                0x02043a26                swiSetHaltCR
 .text          0x02043a30       0xa4 c:/devkitPro/libnds/lib\libnds9.a(debugprint.o)
                0x02043a30                nocashWrite
                0x02043a32                nocashMessage
 .text          0x02043ad4        0x0 c:/devkitPro/libnds/lib\libnds9.a(interruptDispatcher.o)
 *fill*         0x02043ad4        0xc ff
 .text          0x02043ae0       0x30 c:/devkitPro/libnds/lib\libnds9.a(swiSoftReset.o)
                0x02043ae0                swiSoftReset
 .text          0x02043b10        0x0 c:/devkitPro/libnds/lib\libnds9.a(default_font.bin.o)
 .text          0x02043b10       0x94 c:/devkitPro/libnds/lib\libnds9.a(dynamicArray.o)
                0x02043b10                DynamicArrayInit
                0x02043b28                DynamicArrayDelete
                0x02043b3c                DynamicArrayGet
                0x02043b58                DynamicArraySet
 .text          0x02043ba4       0x28 c:/devkitPro/libnds/lib\libnds9.a(exceptions.o)
                0x02043ba4                setExceptionHandler
 .text          0x02043bcc       0xf4 c:/devkitPro/libnds/lib\libnds9.a(system.o)
                0x02043bcc                systemMsgHandler
                0x02043c10                systemSleep
                0x02043c28                powerValueHandler
                0x02043c38                powerOn
                0x02043c64                powerOff
                0x02043c8c                ledBlink
                0x02043ca0                getBatteryLevel
 .text          0x02043cc0      0x148 c:/devkitpro/devkitarm/bin/../lib/gcc/arm-eabi/4.5.1/../../../../arm-eabi/lib/thumb\libm.a(lib_a-s_ceil.o)
                0x02043cc0                ceil
 .text          0x02043e08       0xb0 c:/devkitpro/devkitarm/bin/../lib/gcc/arm-eabi/4.5.1/../../../../arm-eabi/lib/thumb\libm.a(lib_a-s_cos.o)
                0x02043e08                cos
 .text          0x02043eb8      0x148 c:/devkitpro/devkitarm/bin/../lib/gcc/arm-eabi/4.5.1/../../../../arm-eabi/lib/thumb\libm.a(lib_a-s_floor.o)
                0x02043eb8                floor
 .text          0x02044000       0xb8 c:/devkitpro/devkitarm/bin/../lib/gcc/arm-eabi/4.5.1/../../../../arm-eabi/lib/thumb\libm.a(lib_a-s_sin.o)
                0x02044000                sin
 .text          0x020440b8       0x70 c:/devkitpro/devkitarm/bin/../lib/gcc/arm-eabi/4.5.1/../../../../arm-eabi/lib/thumb\libm.a(lib_a-s_tan.o)
                0x020440b8                tan
 .text          0x02044128       0xc0 c:/devkitpro/devkitarm/bin/../lib/gcc/arm-eabi/4.5.1/../../../../arm-eabi/lib/thumb\libm.a(lib_a-w_sqrt.o)
                0x02044128                sqrt
 .text          0x020441e8      0x470 c:/devkitpro/devkitarm/bin/../lib/gcc/arm-eabi/4.5.1/../../../../arm-eabi/lib/thumb\libm.a(lib_a-e_rem_pio2.o)
                0x020441e8                __ieee754_rem_pio2
 .text          0x02044658      0x1b4 c:/devkitpro/devkitarm/bin/../lib/gcc/arm-eabi/4.5.1/../../../../arm-eabi/lib/thumb\libm.a(lib_a-e_sqrt.o)
                0x02044658                __ieee754_sqrt
 *fill*         0x0204480c        0x4 ff
 .text          0x02044810      0x250 c:/devkitpro/devkitarm/bin/../lib/gcc/arm-eabi/4.5.1/../../../../arm-eabi/lib/thumb\libm.a(lib_a-k_cos.o)
                0x02044810                __kernel_cos
 .text          0x02044a60      0x818 c:/devkitpro/devkitarm/bin/../lib/gcc/arm-eabi/4.5.1/../../../../arm-eabi/lib/thumb\libm.a(lib_a-k_rem_pio2.o)
                0x02044a60                __kernel_rem_pio2
 .text          0x02045278      0x168 c:/devkitpro/devkitarm/bin/../lib/gcc/arm-eabi/4.5.1/../../../../arm-eabi/lib/thumb\libm.a(lib_a-k_sin.o)
                0x02045278                __kernel_sin
 .text          0x020453e0      0x3a8 c:/devkitpro/devkitarm/bin/../lib/gcc/arm-eabi/4.5.1/../../../../arm-eabi/lib/thumb\libm.a(lib_a-k_tan.o)
                0x020453e0                __kernel_tan
 .text          0x02045788        0xc c:/devkitpro/devkitarm/bin/../lib/gcc/arm-eabi/4.5.1/../../../../arm-eabi/lib/thumb\libm.a(lib_a-s_fabs.o)
                0x02045788                fabs
 .text          0x02045794       0x9c c:/devkitpro/devkitarm/bin/../lib/gcc/arm-eabi/4.5.1/../../../../arm-eabi/lib/thumb\libm.a(lib_a-s_fpclassify.o)
                0x02045794                __fpclassifyd
 .text          0x02045830        0x0 c:/devkitpro/devkitarm/bin/../lib/gcc/arm-eabi/4.5.1/../../../../arm-eabi/lib/thumb\libm.a(lib_a-s_lib_ver.o)
 .text          0x02045830        0x4 c:/devkitpro/devkitarm/bin/../lib/gcc/arm-eabi/4.5.1/../../../../arm-eabi/lib/thumb\libm.a(lib_a-s_matherr.o)
                0x02045830                matherr
 *fill*         0x02045834        0x4 ff
 .text          0x02045838      0x128 c:/devkitpro/devkitarm/bin/../lib/gcc/arm-eabi/4.5.1/../../../../arm-eabi/lib/thumb\libm.a(lib_a-s_scalbn.o)
                0x02045838                scalbn
 .text          0x02045960       0x18 c:/devkitpro/devkitarm/bin/../lib/gcc/arm-eabi/4.5.1/../../../../arm-eabi/lib/thumb\libm.a(lib_a-s_copysign.o)
                0x02045960                copysign
 .text          0x02045978      0x11c c:/devkitpro/devkitarm/bin/../lib/gcc/arm-eabi/4.5.1/thumb\libgcc.a(_udivsi3.o)
                0x02045978                __aeabi_uidiv
                0x02045978                __udivsi3
                0x02045a74                __aeabi_uidivmod
 .text          0x02045a94      0x150 c:/devkitpro/devkitarm/bin/../lib/gcc/arm-eabi/4.5.1/thumb\libgcc.a(_divsi3.o)
                0x02045a94                __divsi3
                0x02045a94                __aeabi_idiv
                0x02045bc4                __aeabi_idivmod
 .text          0x02045be4        0x4 c:/devkitpro/devkitarm/bin/../lib/gcc/arm-eabi/4.5.1/thumb\libgcc.a(_dvmd_tls.o)
                0x02045be4                __aeabi_idiv0
                0x02045be4                __aeabi_ldiv0
 .text          0x02045be8      0x41c c:/devkitpro/devkitarm/bin/../lib/gcc/arm-eabi/4.5.1/thumb\libgcc.a(_arm_addsubdf3.o)
                0x02045be8                __aeabi_drsub
                0x02045bf0                __aeabi_dsub
                0x02045bf0                __subdf3
                0x02045bf4                __aeabi_dadd
                0x02045bf4                __adddf3
                0x02045f04                __floatunsidf
                0x02045f04                __aeabi_ui2d
                0x02045f28                __floatsidf
                0x02045f28                __aeabi_i2d
                0x02045f50                __aeabi_f2d
                0x02045f50                __extendsfdf2
                0x02045f90                __floatundidf
                0x02045f90                __aeabi_ul2d
                0x02045fa4                __floatdidf
                0x02045fa4                __aeabi_l2d
 .text          0x02046004      0x49c c:/devkitpro/devkitarm/bin/../lib/gcc/arm-eabi/4.5.1/thumb\libgcc.a(_arm_muldivdf3.o)
                0x02046004                __aeabi_dmul
                0x02046004                __muldf3
                0x02046294                __divdf3
                0x02046294                __aeabi_ddiv
 .text          0x020464a0      0x144 c:/devkitpro/devkitarm/bin/../lib/gcc/arm-eabi/4.5.1/thumb\libgcc.a(_arm_cmpdf2.o)
                0x020464a0                __gtdf2
                0x020464a0                __gedf2
                0x020464a8                __ltdf2
                0x020464a8                __ledf2
                0x020464b0                __nedf2
                0x020464b0                __eqdf2
                0x020464b0                __cmpdf2
                0x02046538                __aeabi_cdrcmple
                0x02046554                __aeabi_cdcmpeq
                0x02046554                __aeabi_cdcmple
                0x0204656c                __aeabi_dcmpeq
                0x02046584                __aeabi_dcmplt
                0x0204659c                __aeabi_dcmple
                0x020465b4                __aeabi_dcmpge
                0x020465cc                __aeabi_dcmpgt
 .text          0x020465e4       0x5c c:/devkitpro/devkitarm/bin/../lib/gcc/arm-eabi/4.5.1/thumb\libgcc.a(_arm_fixdfsi.o)
                0x020465e4                __aeabi_d2iz
                0x020465e4                __fixdfsi
 .text          0x02046640       0xa0 c:/devkitpro/devkitarm/bin/../lib/gcc/arm-eabi/4.5.1/thumb\libgcc.a(_arm_truncdfsf2.o)
                0x02046640                __truncdfsf2
                0x02046640                __aeabi_d2f
 .text          0x020466e0      0x2ac c:/devkitpro/devkitarm/bin/../lib/gcc/arm-eabi/4.5.1/thumb\libgcc.a(_arm_addsubsf3.o)
                0x020466e0                __aeabi_frsub
                0x020466e8                __subsf3
                0x020466e8                __aeabi_fsub
                0x020466ec                __aeabi_fadd
                0x020466ec                __addsf3
                0x020468a8                __aeabi_ui2f
                0x020468a8                __floatunsisf
                0x020468b0                __aeabi_i2f
                0x020468b0                __floatsisf
                0x020468d0                __aeabi_ul2f
                0x020468d0                __floatundisf
                0x020468e0                __aeabi_l2f
                0x020468e0                __floatdisf
 .text          0x0204698c      0x2f8 c:/devkitpro/devkitarm/bin/../lib/gcc/arm-eabi/4.5.1/thumb\libgcc.a(_arm_muldivsf3.o)
                0x0204698c                __mulsf3
                0x0204698c                __aeabi_fmul
                0x02046b24                __aeabi_fdiv
                0x02046b24                __divsf3
 .text          0x02046c84      0x114 c:/devkitpro/devkitarm/bin/../lib/gcc/arm-eabi/4.5.1/thumb\libgcc.a(_arm_cmpsf2.o)
                0x02046c84                __gesf2
                0x02046c84                __gtsf2
                0x02046c8c                __lesf2
                0x02046c8c                __ltsf2
                0x02046c94                __nesf2
                0x02046c94                __eqsf2
                0x02046c94                __cmpsf2
                0x02046cf8                __aeabi_cfrcmple
                0x02046d08                __aeabi_cfcmpeq
                0x02046d08                __aeabi_cfcmple
                0x02046d20                __aeabi_fcmpeq
                0x02046d38                __aeabi_fcmplt
                0x02046d50                __aeabi_fcmple
                0x02046d68                __aeabi_fcmpge
                0x02046d80                __aeabi_fcmpgt
 .text          0x02046d98       0x5c c:/devkitpro/devkitarm/bin/../lib/gcc/arm-eabi/4.5.1/thumb\libgcc.a(_arm_fixsfsi.o)
                0x02046d98                __aeabi_f2iz
                0x02046d98                __fixsfsi
 .text          0x02046df4       0x54 c:/devkitpro/devkitarm/bin/../lib/gcc/arm-eabi/4.5.1/thumb\libgcc.a(_arm_fixunssfsi.o)
                0x02046df4                __fixunssfsi
                0x02046df4                __aeabi_f2uiz
 .text          0x02046e48       0x44 c:/devkitpro/devkitarm/bin/../lib/gcc/arm-eabi/4.5.1/thumb\libgcc.a(_aeabi_ldivmod.o)
                0x02046e48                __aeabi_ldivmod
 .text          0x02046e8c       0x4c c:/devkitpro/devkitarm/bin/../lib/gcc/arm-eabi/4.5.1/thumb\libgcc.a(_muldi3.o)
                0x02046e8c                __muldi3
                0x02046e8c                __aeabi_lmul
 .text          0x02046ed8       0x70 c:/devkitpro/devkitarm/bin/../lib/gcc/arm-eabi/4.5.1/thumb\libgcc.a(bpabi.o)
                0x02046ed8                __gnu_ldivmod_helper
                0x02046f10                __gnu_uldivmod_helper
 .text          0x02046f48      0xa88 c:/devkitpro/devkitarm/bin/../lib/gcc/arm-eabi/4.5.1/thumb\libgcc.a(unwind-arm.o)
                0x02047230                _Unwind_VRS_Get
                0x0204727c                _Unwind_VRS_Set
                0x02047598                __aeabi_unwind_cpp_pr2
                0x020475a8                __aeabi_unwind_cpp_pr1
                0x020475b8                __aeabi_unwind_cpp_pr0
                0x020475c8                _Unwind_VRS_Pop
                0x02047848                _Unwind_GetCFA
                0x0204784c                __gnu_Unwind_RaiseException
                0x020478b0                __gnu_Unwind_ForcedUnwind
                0x020478c8                __gnu_Unwind_Resume
                0x02047908                __gnu_Unwind_Resume_or_Rethrow
                0x02047928                _Unwind_Complete
                0x0204792c                _Unwind_DeleteException
                0x02047944                __gnu_Unwind_Backtrace
 .text          0x020479d0      0x1d8 c:/devkitpro/devkitarm/bin/../lib/gcc/arm-eabi/4.5.1/thumb\libgcc.a(libunwind.o)
                0x020479d0                __restore_core_regs
                0x020479d0                restore_core_regs
                0x020479ec                __gnu_Unwind_Restore_VFP
                0x020479f4                __gnu_Unwind_Save_VFP
                0x020479fc                __gnu_Unwind_Restore_VFP_D
                0x02047a04                __gnu_Unwind_Save_VFP_D
                0x02047a0c                __gnu_Unwind_Restore_VFP_D_16_to_31
                0x02047a14                __gnu_Unwind_Save_VFP_D_16_to_31
                0x02047a1c                __gnu_Unwind_Restore_WMMXD
                0x02047a60                __gnu_Unwind_Save_WMMXD
                0x02047aa4                __gnu_Unwind_Restore_WMMXC
                0x02047ab8                __gnu_Unwind_Save_WMMXC
                0x02047acc                ___Unwind_RaiseException
                0x02047acc                _Unwind_RaiseException
                0x02047af8                _Unwind_Resume
                0x02047af8                ___Unwind_Resume
                0x02047b24                _Unwind_Resume_or_Rethrow
                0x02047b24                ___Unwind_Resume_or_Rethrow
                0x02047b50                _Unwind_ForcedUnwind
                0x02047b50                ___Unwind_ForcedUnwind
                0x02047b7c                ___Unwind_Backtrace
                0x02047b7c                _Unwind_Backtrace
 .text          0x02047ba8      0x39c c:/devkitpro/devkitarm/bin/../lib/gcc/arm-eabi/4.5.1/thumb\libgcc.a(pr-support.o)
                0x02047c04                __gnu_unwind_execute
                0x02047ee0                __gnu_unwind_frame
                0x02047f0c                _Unwind_GetRegionStart
                0x02047f1c                _Unwind_GetLanguageSpecificData
                0x02047f34                _Unwind_GetDataRelBase
                0x02047f3c                _Unwind_GetTextRelBase
 .text          0x02047f44      0x38c c:/devkitpro/devkitarm/bin/../lib/gcc/arm-eabi/4.5.1/thumb\libgcc.a(_divdi3.o)
                0x02047f44                __divdi3
 .text          0x020482d0      0x338 c:/devkitpro/devkitarm/bin/../lib/gcc/arm-eabi/4.5.1/thumb\libgcc.a(_udivdi3.o)
                0x020482d0                __udivdi3
 .text          0x02048608       0x48 c:/devkitpro/devkitarm/bin/../lib/gcc/arm-eabi/4.5.1/thumb\libgcc.a(_clzsi2.o)
                0x02048608                __clzsi2
 .text          0x02048650       0x10 c:/devkitpro/devkitarm/bin/../lib/gcc/arm-eabi/4.5.1/../../../../arm-eabi/lib/thumb\libg.a(lib_a-abort.o)
                0x02048650                abort
 .text          0x02048660       0x34 c:/devkitpro/devkitarm/bin/../lib/gcc/arm-eabi/4.5.1/../../../../arm-eabi/lib/thumb\libg.a(lib_a-access.o)
                0x02048660                access
 .text          0x02048694       0x20 c:/devkitpro/devkitarm/bin/../lib/gcc/arm-eabi/4.5.1/../../../../arm-eabi/lib/thumb\libg.a(lib_a-atoi.o)
                0x02048694                atoi
                0x020486a4                _atoi_r
 .text          0x020486b4       0x60 c:/devkitpro/devkitarm/bin/../lib/gcc/arm-eabi/4.5.1/../../../../arm-eabi/lib/thumb\libg.a(lib_a-bsearch.o)
                0x020486b4                bsearch
 .text          0x02048714       0x1c c:/devkitpro/devkitarm/bin/../lib/gcc/arm-eabi/4.5.1/../../../../arm-eabi/lib/thumb\libg.a(lib_a-calloc.o)
                0x02048714                calloc
 .text          0x02048730       0x60 c:/devkitpro/devkitarm/bin/../lib/gcc/arm-eabi/4.5.1/../../../../arm-eabi/lib/thumb\libg.a(lib_a-callocr.o)
                0x02048730                _calloc_r
 .text          0x02048790       0x10 c:/devkitpro/devkitarm/bin/../lib/gcc/arm-eabi/4.5.1/../../../../arm-eabi/lib/thumb\libg.a(lib_a-ctype_.o)
                0x02048790                __set_ctype
 .text          0x020487a0        0xc c:/devkitpro/devkitarm/bin/../lib/gcc/arm-eabi/4.5.1/../../../../arm-eabi/lib/thumb\libg.a(lib_a-errno.o)
                0x020487a0                __errno
 .text          0x020487ac       0x28 c:/devkitpro/devkitarm/bin/../lib/gcc/arm-eabi/4.5.1/../../../../arm-eabi/lib/thumb\libg.a(lib_a-exit.o)
                0x020487ac                exit
 .text          0x020487d4       0xc0 c:/devkitpro/devkitarm/bin/../lib/gcc/arm-eabi/4.5.1/../../../../arm-eabi/lib/thumb\libg.a(lib_a-fclose.o)
                0x020487d4                _fclose_r
                0x02048878                fclose
 .text          0x02048894      0x18c c:/devkitpro/devkitarm/bin/../lib/gcc/arm-eabi/4.5.1/../../../../arm-eabi/lib/thumb\libg.a(lib_a-fflush.o)
                0x02048894                _fflush_r
                0x020489f0                fflush
 .text          0x02048a20      0x238 c:/devkitpro/devkitarm/bin/../lib/gcc/arm-eabi/4.5.1/../../../../arm-eabi/lib/thumb\libg.a(lib_a-findfp.o)
                0x02048a28                _cleanup_r
                0x02048a3c                __sfmoreglue
                0x02048a6c                _cleanup
                0x02048a80                __sinit
                0x02048b80                __sfp
                0x02048c10                __sfp_lock_acquire
                0x02048c14                __sfp_lock_release
                0x02048c18                __sinit_lock_acquire
                0x02048c1c                __sinit_lock_release
                0x02048c20                __fp_lock_all
                0x02048c3c                __fp_unlock_all
 .text          0x02048c58       0xb0 c:/devkitpro/devkitarm/bin/../lib/gcc/arm-eabi/4.5.1/../../../../arm-eabi/lib/thumb\libg.a(lib_a-fopen.o)
                0x02048c58                _fopen_r
                0x02048cec                fopen
 .text          0x02048d08       0x3c c:/devkitpro/devkitarm/bin/../lib/gcc/arm-eabi/4.5.1/../../../../arm-eabi/lib/thumb\libg.a(lib_a-fprintf.o)
                0x02048d08                _fprintf_r
                0x02048d20                fprintf
 .text          0x02048d44       0x54 c:/devkitpro/devkitarm/bin/../lib/gcc/arm-eabi/4.5.1/../../../../arm-eabi/lib/thumb\libg.a(lib_a-fputc.o)
                0x02048d44                _fputc_r
                0x02048d6c                fputc
 .text          0x02048d98      0x1a8 c:/devkitpro/devkitarm/bin/../lib/gcc/arm-eabi/4.5.1/../../../../arm-eabi/lib/thumb\libg.a(lib_a-fread.o)
                0x02048d98                _fread_r
                0x02048f18                fread
 .text          0x02048f40      0x244 c:/devkitpro/devkitarm/bin/../lib/gcc/arm-eabi/4.5.1/../../../../arm-eabi/lib/thumb\libg.a(lib_a-freer.o)
                0x02048f40                _malloc_trim_r
                0x02048fe4                _free_r
 .text          0x02049184       0x3c c:/devkitpro/devkitarm/bin/../lib/gcc/arm-eabi/4.5.1/../../../../arm-eabi/lib/thumb\libg.a(lib_a-fscanf.o)
                0x02049184                fscanf
                0x020491a8                _fscanf_r
 .text          0x020491c0      0x33c c:/devkitpro/devkitarm/bin/../lib/gcc/arm-eabi/4.5.1/../../../../arm-eabi/lib/thumb\libg.a(lib_a-fseek.o)
                0x020491c0                _fseek_r
                0x020494d8                fseek
 .text          0x020494fc       0x9c c:/devkitpro/devkitarm/bin/../lib/gcc/arm-eabi/4.5.1/../../../../arm-eabi/lib/thumb\libg.a(lib_a-ftell.o)
                0x020494fc                _ftell_r
                0x0204957c                ftell
 .text          0x02049598       0xbc c:/devkitpro/devkitarm/bin/../lib/gcc/arm-eabi/4.5.1/../../../../arm-eabi/lib/thumb\libg.a(lib_a-fwalk.o)
                0x02049598                _fwalk
                0x020495f0                _fwalk_reent
 .text          0x02049654       0xa4 c:/devkitpro/devkitarm/bin/../lib/gcc/arm-eabi/4.5.1/../../../../arm-eabi/lib/thumb\libg.a(lib_a-fwrite.o)
                0x02049654                _fwrite_r
                0x020496d0                fwrite
 .text          0x020496f8        0x0 c:/devkitpro/devkitarm/bin/../lib/gcc/arm-eabi/4.5.1/../../../../arm-eabi/lib/thumb\libg.a(lib_a-impure.o)
 .text          0x020496f8       0x88 c:/devkitpro/devkitarm/bin/../lib/gcc/arm-eabi/4.5.1/../../../../arm-eabi/lib/thumb\libg.a(lib_a-init.o)
                0x020496f8                __libc_init_array
                0x02049748                __libc_fini_array
 .text          0x02049780       0x40 c:/devkitpro/devkitarm/bin/../lib/gcc/arm-eabi/4.5.1/../../../../arm-eabi/lib/thumb\libg.a(lib_a-iprintf.o)
                0x02049780                iprintf
                0x020497a4                _iprintf_r
 .text          0x020497c0       0x10 c:/devkitpro/devkitarm/bin/../lib/gcc/arm-eabi/4.5.1/../../../../arm-eabi/lib/thumb\libg.a(lib_a-lcltime_r.o)
                0x020497c0                localtime_r
 .text          0x020497d0      0x7dc c:/devkitpro/devkitarm/bin/../lib/gcc/arm-eabi/4.5.1/../../../../arm-eabi/lib/thumb\libg.a(lib_a-locale.o)
                0x02049d40                _setlocale_r
                0x02049f5c                __locale_charset
                0x02049f68                __locale_msgcharset
                0x02049f74                __locale_cjk_lang
                0x02049f80                _localeconv_r
                0x02049f88                setlocale
                0x02049fa4                localeconv
 .text          0x02049fac       0xe8 c:/devkitpro/devkitarm/bin/../lib/gcc/arm-eabi/4.5.1/../../../../arm-eabi/lib/thumb\libg.a(lib_a-makebuf.o)
                0x02049fac                __smakebuf_r
 .text          0x0204a094       0x30 c:/devkitpro/devkitarm/bin/../lib/gcc/arm-eabi/4.5.1/../../../../arm-eabi/lib/thumb\libg.a(lib_a-malloc.o)
                0x0204a094                malloc
                0x0204a0ac                free
 .text          0x0204a0c4      0x518 c:/devkitpro/devkitarm/bin/../lib/gcc/arm-eabi/4.5.1/../../../../arm-eabi/lib/thumb\libg.a(lib_a-mallocr.o)
                0x0204a0c4                _malloc_r
 .text          0x0204a5dc      0x108 c:/devkitpro/devkitarm/bin/../lib/gcc/arm-eabi/4.5.1/../../../../arm-eabi/lib/thumb\libg.a(lib_a-mbrtowc.o)
                0x0204a5dc                _mbrtowc_r
                0x0204a654                mbrtowc
 .text          0x0204a6e4       0x48 c:/devkitpro/devkitarm/bin/../lib/gcc/arm-eabi/4.5.1/../../../../arm-eabi/lib/thumb\libg.a(lib_a-mbsrtowcs.o)
                0x0204a6e4                _mbsrtowcs_r
                0x0204a700                mbsrtowcs
 .text          0x0204a72c      0x5e0 c:/devkitpro/devkitarm/bin/../lib/gcc/arm-eabi/4.5.1/../../../../arm-eabi/lib/thumb\libg.a(lib_a-mbtowc_r.o)
                0x0204a72c                __utf8_mbtowc
                0x0204a9d0                _mbtowc_r
                0x0204aa0c                __ascii_mbtowc
                0x0204aa3c                __sjis_mbtowc
                0x0204ab00                __eucjp_mbtowc
                0x0204abf0                __jis_mbtowc
 .text          0x0204ad0c       0x98 c:/devkitpro/devkitarm/bin/../lib/gcc/arm-eabi/4.5.1/../../../../arm-eabi/lib/thumb\libg.a(lib_a-memchr.o)
                0x0204ad0c                memchr
 .text          0x0204ada4       0x5c c:/devkitpro/devkitarm/bin/../lib/gcc/arm-eabi/4.5.1/../../../../arm-eabi/lib/thumb\libg.a(lib_a-memcmp.o)
                0x0204ada4                memcmp
 .text          0x0204ae00       0x84 c:/devkitpro/devkitarm/bin/../lib/gcc/arm-eabi/4.5.1/../../../../arm-eabi/lib/thumb\libg.a(lib_a-memcpy.o)
                0x0204ae00                memcpy
 .text          0x0204ae84       0xa4 c:/devkitpro/devkitarm/bin/../lib/gcc/arm-eabi/4.5.1/../../../../arm-eabi/lib/thumb\libg.a(lib_a-memmove.o)
                0x0204ae84                memmove
 .text          0x0204af28       0x94 c:/devkitpro/devkitarm/bin/../lib/gcc/arm-eabi/4.5.1/../../../../arm-eabi/lib/thumb\libg.a(lib_a-memset.o)
                0x0204af28                memset
 .text          0x0204afbc      0x4b4 c:/devkitpro/devkitarm/bin/../lib/gcc/arm-eabi/4.5.1/../../../../arm-eabi/lib/thumb\libg.a(lib_a-mktime.o)
                0x0204b1ac                mktime
 .text          0x0204b470      0x47c c:/devkitpro/devkitarm/bin/../lib/gcc/arm-eabi/4.5.1/../../../../arm-eabi/lib/thumb\libg.a(lib_a-mktm_r.o)
                0x0204b470                __tzcalc_limits
                0x0204b5f8                _mktm_r
 .text          0x0204b8ec        0x8 c:/devkitpro/devkitarm/bin/../lib/gcc/arm-eabi/4.5.1/../../../../arm-eabi/lib/thumb\libg.a(lib_a-mlock.o)
                0x0204b8ec                __malloc_lock
                0x0204b8f0                __malloc_unlock
 .text          0x0204b8f4       0x40 c:/devkitpro/devkitarm/bin/../lib/gcc/arm-eabi/4.5.1/../../../../arm-eabi/lib/thumb\libg.a(lib_a-printf.o)
                0x0204b8f4                _printf_r
                0x0204b910                printf
 .text          0x0204b934       0xc4 c:/devkitpro/devkitarm/bin/../lib/gcc/arm-eabi/4.5.1/../../../../arm-eabi/lib/thumb\libg.a(lib_a-putc.o)
                0x0204b934                _putc_r
                0x0204b994                putc
 .text          0x0204b9f8       0x28 c:/devkitpro/devkitarm/bin/../lib/gcc/arm-eabi/4.5.1/../../../../arm-eabi/lib/thumb\libg.a(lib_a-putchar.o)
                0x0204b9f8                _putchar_r
                0x0204ba08                putchar
 .text          0x0204ba20       0x84 c:/devkitpro/devkitarm/bin/../lib/gcc/arm-eabi/4.5.1/../../../../arm-eabi/lib/thumb\libg.a(lib_a-puts.o)
                0x0204ba20                _puts_r
                0x0204ba8c                puts
 .text          0x0204baa4      0x5b0 c:/devkitpro/devkitarm/bin/../lib/gcc/arm-eabi/4.5.1/../../../../arm-eabi/lib/thumb\libg.a(lib_a-qsort.o)
                0x0204baa4                qsort
 .text          0x0204c054       0x1c c:/devkitpro/devkitarm/bin/../lib/gcc/arm-eabi/4.5.1/../../../../arm-eabi/lib/thumb\libg.a(lib_a-realloc.o)
                0x0204c054                realloc
 .text          0x0204c070      0x41c c:/devkitpro/devkitarm/bin/../lib/gcc/arm-eabi/4.5.1/../../../../arm-eabi/lib/thumb\libg.a(lib_a-reallocr.o)
                0x0204c070                _realloc_r
 .text          0x0204c48c      0x134 c:/devkitpro/devkitarm/bin/../lib/gcc/arm-eabi/4.5.1/../../../../arm-eabi/lib/thumb\libg.a(lib_a-refill.o)
                0x0204c4ac                __srefill_r
 .text          0x0204c5c0       0x18 c:/devkitpro/devkitarm/bin/../lib/gcc/arm-eabi/4.5.1/../../../../arm-eabi/lib/thumb\libg.a(lib_a-setbuf.o)
                0x0204c5c0                setbuf
 .text          0x0204c5d8      0x114 c:/devkitpro/devkitarm/bin/../lib/gcc/arm-eabi/4.5.1/../../../../arm-eabi/lib/thumb\libg.a(lib_a-setvbuf.o)
                0x0204c5d8                setvbuf
 .text          0x0204c6ec      0x190 c:/devkitpro/devkitarm/bin/../lib/gcc/arm-eabi/4.5.1/../../../../arm-eabi/lib/thumb\libg.a(lib_a-signal.o)
                0x0204c6ec                _init_signal_r
                0x0204c728                _signal_r
                0x0204c768                _raise_r
                0x0204c7c8                __sigtramp_r
                0x0204c818                raise
                0x0204c830                signal
                0x0204c84c                _init_signal
                0x0204c860                __sigtramp
 .text          0x0204c87c       0xa0 c:/devkitpro/devkitarm/bin/../lib/gcc/arm-eabi/4.5.1/../../../../arm-eabi/lib/thumb\libg.a(lib_a-siscanf.o)
                0x0204c87c                siscanf
                0x0204c8cc                _siscanf_r
 .text          0x0204c91c       0x84 c:/devkitpro/devkitarm/bin/../lib/gcc/arm-eabi/4.5.1/../../../../arm-eabi/lib/thumb\libg.a(lib_a-sprintf.o)
                0x0204c91c                _sprintf_r
                0x0204c95c                sprintf
 .text          0x0204c9a0       0xa0 c:/devkitpro/devkitarm/bin/../lib/gcc/arm-eabi/4.5.1/../../../../arm-eabi/lib/thumb\libg.a(lib_a-sscanf.o)
                0x0204c9a0                sscanf
                0x0204c9f0                _sscanf_r
 .text          0x0204ca40       0xac c:/devkitpro/devkitarm/bin/../lib/gcc/arm-eabi/4.5.1/../../../../arm-eabi/lib/thumb\libg.a(lib_a-stdio.o)
                0x0204ca40                __sread
                0x0204ca6c                __seofread
                0x0204ca70                __swrite
                0x0204caac                __sseek
                0x0204cadc                __sclose
 .text          0x0204caec       0x54 c:/devkitpro/devkitarm/bin/../lib/gcc/arm-eabi/4.5.1/../../../../arm-eabi/lib/thumb\libg.a(lib_a-strcasecmp.o)
                0x0204caec                strcasecmp
 .text          0x0204cb40       0x48 c:/devkitpro/devkitarm/bin/../lib/gcc/arm-eabi/4.5.1/../../../../arm-eabi/lib/thumb\libg.a(lib_a-strcat.o)
                0x0204cb40                strcat
 .text          0x0204cb88       0xe8 c:/devkitpro/devkitarm/bin/../lib/gcc/arm-eabi/4.5.1/../../../../arm-eabi/lib/thumb\libg.a(lib_a-strchr.o)
                0x0204cb88                strchr
 .text          0x0204cc70       0x14 c:/devkitpro/devkitarm/bin/../lib/gcc/arm-eabi/4.5.1/../../../../arm-eabi/lib/thumb\libg.a(lib_a-strcmp.o)
                0x0204cc70                strcmp
 .text          0x0204cc84       0x10 c:/devkitpro/devkitarm/bin/../lib/gcc/arm-eabi/4.5.1/../../../../arm-eabi/lib/thumb\libg.a(lib_a-strcpy.o)
                0x0204cc84                strcpy
 .text          0x0204cc94       0x4c c:/devkitpro/devkitarm/bin/../lib/gcc/arm-eabi/4.5.1/../../../../arm-eabi/lib/thumb\libg.a(lib_a-strlcpy.o)
                0x0204cc94                strlcpy
 .text          0x0204cce0       0x10 c:/devkitpro/devkitarm/bin/../lib/gcc/arm-eabi/4.5.1/../../../../arm-eabi/lib/thumb\libg.a(lib_a-strlen.o)
                0x0204cce0                strlen
 .text          0x0204ccf0       0x60 c:/devkitpro/devkitarm/bin/../lib/gcc/arm-eabi/4.5.1/../../../../arm-eabi/lib/thumb\libg.a(lib_a-strncasecmp.o)
                0x0204ccf0                strncasecmp
 .text          0x0204cd50       0xc0 c:/devkitpro/devkitarm/bin/../lib/gcc/arm-eabi/4.5.1/../../../../arm-eabi/lib/thumb\libg.a(lib_a-strncmp.o)
                0x0204cd50                strncmp
 .text          0x0204ce10       0x6c c:/devkitpro/devkitarm/bin/../lib/gcc/arm-eabi/4.5.1/../../../../arm-eabi/lib/thumb\libg.a(lib_a-strncpy.o)
                0x0204ce10                strncpy
 .text          0x0204ce7c       0x2c c:/devkitpro/devkitarm/bin/../lib/gcc/arm-eabi/4.5.1/../../../../arm-eabi/lib/thumb\libg.a(lib_a-strnlen.o)
                0x0204ce7c                strnlen
 .text          0x0204cea8       0x50 c:/devkitpro/devkitarm/bin/../lib/gcc/arm-eabi/4.5.1/../../../../arm-eabi/lib/thumb\libg.a(lib_a-strpbrk.o)
                0x0204cea8                strpbrk
 .text          0x0204cef8       0x2c c:/devkitpro/devkitarm/bin/../lib/gcc/arm-eabi/4.5.1/../../../../arm-eabi/lib/thumb\libg.a(lib_a-strrchr.o)
                0x0204cef8                strrchr
 .text          0x0204cf24      0x188 c:/devkitpro/devkitarm/bin/../lib/gcc/arm-eabi/4.5.1/../../../../arm-eabi/lib/thumb\libg.a(lib_a-strtol.o)
                0x0204cf24                _strtol_r
                0x0204d08c                strtol
 .text          0x0204d0ac       0x3c c:/devkitpro/devkitarm/bin/../lib/gcc/arm-eabi/4.5.1/../../../../arm-eabi/lib/thumb\libg.a(lib_a-strupr.o)
                0x0204d0ac                strupr
 .text          0x0204d0e8      0xb60 c:/devkitpro/devkitarm/bin/../lib/gcc/arm-eabi/4.5.1/../../../../arm-eabi/lib/thumb\libg.a(lib_a-svfiscanf.o)
                0x0204d0e8                _sungetc_r
                0x0204d174                __ssrefill_r
                0x0204d1b8                _sfread_r
                0x0204d24c                __ssvfiscanf_r
 .text          0x0204dc48     0x1798 c:/devkitpro/devkitarm/bin/../lib/gcc/arm-eabi/4.5.1/../../../../arm-eabi/lib/thumb\libg.a(lib_a-svfprintf.o)
                0x0204dc48                _svfprintf_r
 .text          0x0204f3e0      0xeac c:/devkitpro/devkitarm/bin/../lib/gcc/arm-eabi/4.5.1/../../../../arm-eabi/lib/thumb\libg.a(lib_a-svfscanf.o)
                0x0204f3e0                __ssvfscanf_r
 .text          0x0205028c       0x18 c:/devkitpro/devkitarm/bin/../lib/gcc/arm-eabi/4.5.1/../../../../arm-eabi/lib/thumb\libg.a(lib_a-sysclose.o)
                0x0205028c                close
 .text          0x020502a4       0x1c c:/devkitpro/devkitarm/bin/../lib/gcc/arm-eabi/4.5.1/../../../../arm-eabi/lib/thumb\libg.a(lib_a-sysfstat.o)
                0x020502a4                fstat
 .text          0x020502c0       0x20 c:/devkitpro/devkitarm/bin/../lib/gcc/arm-eabi/4.5.1/../../../../arm-eabi/lib/thumb\libg.a(lib_a-syslseek.o)
                0x020502c0                lseek
 .text          0x020502e0       0x28 c:/devkitpro/devkitarm/bin/../lib/gcc/arm-eabi/4.5.1/../../../../arm-eabi/lib/thumb\libg.a(lib_a-sysopen.o)
                0x020502e0                open
 .text          0x02050308       0x20 c:/devkitpro/devkitarm/bin/../lib/gcc/arm-eabi/4.5.1/../../../../arm-eabi/lib/thumb\libg.a(lib_a-sysread.o)
                0x02050308                read
 .text          0x02050328       0x1c c:/devkitpro/devkitarm/bin/../lib/gcc/arm-eabi/4.5.1/../../../../arm-eabi/lib/thumb\libg.a(lib_a-sysstat.o)
                0x02050328                stat
 .text          0x02050344       0x20 c:/devkitpro/devkitarm/bin/../lib/gcc/arm-eabi/4.5.1/../../../../arm-eabi/lib/thumb\libg.a(lib_a-syswrite.o)
                0x02050344                write
 .text          0x02050364       0x34 c:/devkitpro/devkitarm/bin/../lib/gcc/arm-eabi/4.5.1/../../../../arm-eabi/lib/thumb\libg.a(lib_a-time.o)
                0x02050364                time
 .text          0x02050398      0x490 c:/devkitpro/devkitarm/bin/../lib/gcc/arm-eabi/4.5.1/../../../../arm-eabi/lib/thumb\libg.a(lib_a-towlower.o)
                0x02050398                towlower
 .text          0x02050828      0x670 c:/devkitpro/devkitarm/bin/../lib/gcc/arm-eabi/4.5.1/../../../../arm-eabi/lib/thumb\libg.a(lib_a-towupper.o)
                0x02050828                towupper
 .text          0x02050e98        0x8 c:/devkitpro/devkitarm/bin/../lib/gcc/arm-eabi/4.5.1/../../../../arm-eabi/lib/thumb\libg.a(lib_a-tzlock.o)
                0x02050e98                __tz_lock
                0x02050e9c                __tz_unlock
 .text          0x02050ea0        0x0 c:/devkitpro/devkitarm/bin/../lib/gcc/arm-eabi/4.5.1/../../../../arm-eabi/lib/thumb\libg.a(lib_a-tzvars.o)
 .text          0x02050ea0      0x188 c:/devkitpro/devkitarm/bin/../lib/gcc/arm-eabi/4.5.1/../../../../arm-eabi/lib/thumb\libg.a(lib_a-ungetc.o)
                0x02050ea0                __submore
                0x02050f1c                _ungetc_r
                0x0205100c                ungetc
 .text          0x02051028      0xf14 c:/devkitpro/devkitarm/bin/../lib/gcc/arm-eabi/4.5.1/../../../../arm-eabi/lib/thumb\libg.a(lib_a-vfiprintf.o)
                0x02051028                __sprint_r
                0x020510b0                _vfiprintf_r
                0x02051f18                vfiprintf
 *fill*         0x02051f3c        0x4 ff
 .text          0x02051f40     0x1a38 c:/devkitpro/devkitarm/bin/../lib/gcc/arm-eabi/4.5.1/../../../../arm-eabi/lib/thumb\libg.a(lib_a-vfprintf.o)
                0x02051f40                _vfprintf_r
                0x02053954                vfprintf
 .text          0x02053978      0xf28 c:/devkitpro/devkitarm/bin/../lib/gcc/arm-eabi/4.5.1/../../../../arm-eabi/lib/thumb\libg.a(lib_a-vfscanf.o)
                0x02053978                __svfscanf_r
                0x02054820                _vfscanf_r
                0x0205484c                __svfscanf
                0x0205486c                vfscanf
 .text          0x020548a0       0x30 c:/devkitpro/devkitarm/bin/../lib/gcc/arm-eabi/4.5.1/../../../../arm-eabi/lib/thumb\libg.a(lib_a-vprintf.o)
                0x020548a0                vprintf
                0x020548bc                _vprintf_r
 .text          0x020548d0       0xe0 c:/devkitpro/devkitarm/bin/../lib/gcc/arm-eabi/4.5.1/../../../../arm-eabi/lib/thumb\libg.a(lib_a-wbuf.o)
                0x020548d0                __swbuf_r
                0x02054994                __swbuf
 .text          0x020549b0       0xf0 c:/devkitpro/devkitarm/bin/../lib/gcc/arm-eabi/4.5.1/../../../../arm-eabi/lib/thumb\libg.a(lib_a-wcrtomb.o)
                0x020549b0                _wcrtomb_r
                0x02054a1c                wcrtomb
 .text          0x02054aa0       0x48 c:/devkitpro/devkitarm/bin/../lib/gcc/arm-eabi/4.5.1/../../../../arm-eabi/lib/thumb\libg.a(lib_a-wcsrtombs.o)
                0x02054aa0                _wcsrtombs_r
                0x02054abc                wcsrtombs
 .text          0x02054ae8       0x60 c:/devkitpro/devkitarm/bin/../lib/gcc/arm-eabi/4.5.1/../../../../arm-eabi/lib/thumb\libg.a(lib_a-wctob.o)
                0x02054ae8                wctob
 .text          0x02054b48      0x294 c:/devkitpro/devkitarm/bin/../lib/gcc/arm-eabi/4.5.1/../../../../arm-eabi/lib/thumb\libg.a(lib_a-wctomb_r.o)
                0x02054b48                __utf8_wctomb
                0x02054c0c                _wctomb_r
                0x02054c44                __ascii_wctomb
                0x02054c64                __sjis_wctomb
                0x02054cd4                __eucjp_wctomb
                0x02054d58                __jis_wctomb
 .text          0x02054ddc       0xc4 c:/devkitpro/devkitarm/bin/../lib/gcc/arm-eabi/4.5.1/../../../../arm-eabi/lib/thumb\libg.a(lib_a-wsetup.o)
                0x02054ddc                __swsetup_r
 .text          0x02054ea0      0x108 c:/devkitpro/devkitarm/bin/../lib/gcc/arm-eabi/4.5.1/../../../../arm-eabi/lib/thumb\libg.a(lib_a-__call_atexit.o)
                0x02054ea0                __call_exitprocs
 .text          0x02054fa8       0x40 c:/devkitpro/devkitarm/bin/../lib/gcc/arm-eabi/4.5.1/../../../../arm-eabi/lib/thumb\libg.a(lib_a-div.o)
                0x02054fa8                div
 .text          0x02054fe8     0x10c8 c:/devkitpro/devkitarm/bin/../lib/gcc/arm-eabi/4.5.1/../../../../arm-eabi/lib/thumb\libg.a(lib_a-dtoa.o)
                0x02055144                _dtoa_r
 .text          0x020560b0       0x70 c:/devkitpro/devkitarm/bin/../lib/gcc/arm-eabi/4.5.1/../../../../arm-eabi/lib/thumb\libg.a(lib_a-flags.o)
                0x020560b0                __sflags
 .text          0x02056120      0x10c c:/devkitpro/devkitarm/bin/../lib/gcc/arm-eabi/4.5.1/../../../../arm-eabi/lib/thumb\libg.a(lib_a-fputwc.o)
                0x02056120                _fputwc_r
                0x02056200                fputwc
 .text          0x0205622c      0x33c c:/devkitpro/devkitarm/bin/../lib/gcc/arm-eabi/4.5.1/../../../../arm-eabi/lib/thumb\libg.a(lib_a-fvwrite.o)
                0x0205622c                __sfvwrite_r
 .text          0x02056568       0xa8 c:/devkitpro/devkitarm/bin/../lib/gcc/arm-eabi/4.5.1/../../../../arm-eabi/lib/thumb\libg.a(lib_a-getenv_r.o)
                0x02056568                _findenv_r
                0x02056600                _getenv_r
 .text          0x02056610        0x8 c:/devkitpro/devkitarm/bin/../lib/gcc/arm-eabi/4.5.1/../../../../arm-eabi/lib/thumb\libg.a(lib_a-gettzinfo.o)
                0x02056610                __gettzinfo
 .text          0x02056618       0x70 c:/devkitpro/devkitarm/bin/../lib/gcc/arm-eabi/4.5.1/../../../../arm-eabi/lib/thumb\libg.a(lib_a-iswspace.o)
                0x02056618                iswspace
 .text          0x02056688      0x1f4 c:/devkitpro/devkitarm/bin/../lib/gcc/arm-eabi/4.5.1/../../../../arm-eabi/lib/thumb\libg.a(lib_a-jp2uc.o)
                0x02056818                _jp2uc
 .text          0x0205687c       0xf0 c:/devkitpro/devkitarm/bin/../lib/gcc/arm-eabi/4.5.1/../../../../arm-eabi/lib/thumb\libg.a(lib_a-mbsnrtowcs.o)
                0x0205687c                _mbsnrtowcs_r
                0x02056940                mbsnrtowcs
 *fill*         0x0205696c        0x4 ff
 .text          0x02056970      0x9c0 c:/devkitpro/devkitarm/bin/../lib/gcc/arm-eabi/4.5.1/../../../../arm-eabi/lib/thumb\libg.a(lib_a-mprec.o)
                0x02056970                _Balloc
                0x020569c4                _Bfree
                0x020569dc                __multadd
                0x02056a78                __s2b
                0x02056b10                __hi0bits
                0x02056b50                __lo0bits
                0x02056bb0                __i2b
                0x02056bc8                __multiply
                0x02056d50                __pow5mult
                0x02056e04                __lshift
                0x02056ed4                __mcmp
                0x02056f14                __mdiff
                0x02057014                __ulp
                0x02057060                __b2d
                0x02057100                __d2b
                0x020571d0                __ratio
                0x02057244                _mprec_log10
                0x02057284                __copybits
                0x020572cc                __any_on
 .text          0x02057330       0x84 c:/devkitpro/devkitarm/bin/../lib/gcc/arm-eabi/4.5.1/../../../../arm-eabi/lib/thumb\libg.a(lib_a-sccl.o)
                0x02057330                __sccl
 .text          0x020573b4        0x8 c:/devkitpro/devkitarm/bin/../lib/gcc/arm-eabi/4.5.1/../../../../arm-eabi/lib/thumb\libg.a(lib_a-sf_nan.o)
                0x020573b4                nanf
 *fill*         0x020573bc        0x4 ff
 .text          0x020573c0      0xef0 c:/devkitpro/devkitarm/bin/../lib/gcc/arm-eabi/4.5.1/../../../../arm-eabi/lib/thumb\libg.a(lib_a-strtod.o)
                0x020573f0                _strtod_r
                0x02058260                strtod
                0x0205827c                strtof
 .text          0x020582b0      0x210 c:/devkitpro/devkitarm/bin/../lib/gcc/arm-eabi/4.5.1/../../../../arm-eabi/lib/thumb\libg.a(lib_a-strtoll_r.o)
                0x020582b0                _strtoll_r
 .text          0x020584c0      0x194 c:/devkitpro/devkitarm/bin/../lib/gcc/arm-eabi/4.5.1/../../../../arm-eabi/lib/thumb\libg.a(lib_a-strtoul.o)
                0x020584c0                _strtoul_r
                0x02058634                strtoul
 *fill*         0x02058654        0x4 ff
 .text          0x02058658      0x230 c:/devkitpro/devkitarm/bin/../lib/gcc/arm-eabi/4.5.1/../../../../arm-eabi/lib/thumb\libg.a(lib_a-strtoull_r.o)
                0x02058658                _strtoull_r
 .text          0x02058888      0xdd0 c:/devkitpro/devkitarm/bin/../lib/gcc/arm-eabi/4.5.1/../../../../arm-eabi/lib/thumb\libg.a(lib_a-svfiprintf.o)
                0x02058888                __ssprint_r
                0x020589c4                _svfiprintf_r
 .text          0x02059658      0x148 c:/devkitpro/devkitarm/bin/../lib/gcc/arm-eabi/4.5.1/../../../../arm-eabi/lib/thumb\libg.a(lib_a-wcsnrtombs.o)
                0x02059658                _wcsnrtombs_r
                0x02059770                wcsnrtombs
 .text          0x020597a0        0x0 c:/devkitpro/devkitarm/bin/../lib/gcc/arm-eabi/4.5.1/../../../../arm-eabi/lib/thumb\libg.a(lib_a-environ.o)
 .text          0x020597a0        0x8 c:/devkitpro/devkitarm/bin/../lib/gcc/arm-eabi/4.5.1/../../../../arm-eabi/lib/thumb\libg.a(lib_a-envlock.o)
                0x020597a0                __env_lock
                0x020597a4                __env_unlock
 .text          0x020597a8      0x62c c:/devkitpro/devkitarm/bin/../lib/gcc/arm-eabi/4.5.1/../../../../arm-eabi/lib/thumb\libg.a(lib_a-gdtoa-gethex.o)
                0x02059854                __hexdig_init
                0x020598b0                __gethex
 .text          0x02059dd4      0x1d8 c:/devkitpro/devkitarm/bin/../lib/gcc/arm-eabi/4.5.1/../../../../arm-eabi/lib/thumb\libg.a(lib_a-gdtoa-hexnan.o)
                0x02059dd4                __hexnan
 .text          0x02059fac      0x144 c:/devkitpro/devkitarm/bin/../lib/gcc/arm-eabi/4.5.1/../../../../arm-eabi/lib/thumb\libsysbase.a(iosupport.o)
                0x02059fac                setDefaultDevice
                0x02059fc0                FindDevice
                0x0205a030                RemoveDevice
                0x0205a054                AddDevice
                0x0205a0d0                GetDeviceOpTab
 .text          0x0205a0f0       0x54 c:/devkitpro/devkitarm/bin/../lib/gcc/arm-eabi/4.5.1/../../../../arm-eabi/lib/thumb\libsysbase.a(close.o)
                0x0205a0f0                _close_r
 .text          0x0205a144       0x58 c:/devkitpro/devkitarm/bin/../lib/gcc/arm-eabi/4.5.1/../../../../arm-eabi/lib/thumb\libsysbase.a(fstat.o)
                0x0205a144                _fstat_r
 .text          0x0205a19c        0xc c:/devkitpro/devkitarm/bin/../lib/gcc/arm-eabi/4.5.1/../../../../arm-eabi/lib/thumb\libsysbase.a(getpid.o)
                0x0205a19c                _getpid_r
 .text          0x0205a1a8        0x4 c:/devkitpro/devkitarm/bin/../lib/gcc/arm-eabi/4.5.1/../../../../arm-eabi/lib/thumb\libsysbase.a(isatty.o)
                0x0205a1a8                _isatty_r
 .text          0x0205a1ac        0xc c:/devkitpro/devkitarm/bin/../lib/gcc/arm-eabi/4.5.1/../../../../arm-eabi/lib/thumb\libsysbase.a(kill.o)
                0x0205a1ac                _kill_r
 .text          0x0205a1b8       0x54 c:/devkitpro/devkitarm/bin/../lib/gcc/arm-eabi/4.5.1/../../../../arm-eabi/lib/thumb\libsysbase.a(lseek.o)
                0x0205a1b8                _lseek_r
 .text          0x0205a20c       0xa0 c:/devkitpro/devkitarm/bin/../lib/gcc/arm-eabi/4.5.1/../../../../arm-eabi/lib/thumb\libsysbase.a(open.o)
                0x0205a20c                _open_r
 .text          0x0205a2ac       0x54 c:/devkitpro/devkitarm/bin/../lib/gcc/arm-eabi/4.5.1/../../../../arm-eabi/lib/thumb\libsysbase.a(read.o)
                0x0205a2ac                _read_r
 .text          0x0205a300       0x54 c:/devkitpro/devkitarm/bin/../lib/gcc/arm-eabi/4.5.1/../../../../arm-eabi/lib/thumb\libsysbase.a(sbrk.o)
                0x0205a300                _sbrk_r
 .text          0x0205a354       0x40 c:/devkitpro/devkitarm/bin/../lib/gcc/arm-eabi/4.5.1/../../../../arm-eabi/lib/thumb\libsysbase.a(stat.o)
                0x0205a354                _stat_r
 .text          0x0205a394       0x48 c:/devkitpro/devkitarm/bin/../lib/gcc/arm-eabi/4.5.1/../../../../arm-eabi/lib/thumb\libsysbase.a(times.o)
                0x0205a394                _times
                0x0205a3a8                _times_r
                0x0205a3b0                _gettimeofday_r
 .text          0x0205a3dc       0x54 c:/devkitpro/devkitarm/bin/../lib/gcc/arm-eabi/4.5.1/../../../../arm-eabi/lib/thumb\libsysbase.a(write.o)
                0x0205a3dc                _write_r
 .text          0x0205a430       0x18 c:/devkitpro/devkitarm/bin/../lib/gcc/arm-eabi/4.5.1/../../../../arm-eabi/lib/thumb\libsysbase.a(_exit.o)
                0x0205a430                _exit
 .text          0x0205a448        0x0 c:/devkitpro/devkitarm/bin/../lib/gcc/arm-eabi/4.5.1/../../../../arm-eabi/lib/thumb\libsysbase.a(malloc_vars.o)
 .text          0x0205a448      0x258 c:/devkitpro/devkitarm/bin/../lib/gcc/arm-eabi/4.5.1/../../../../arm-eabi/lib/thumb\libsysbase.a(chdir.o)
                0x0205a448                _concatenate_path
                0x0205a564                chdir
                0x0205a650                getcwd
 .text          0x0205a6a0       0x4c c:/devkitpro/devkitarm/bin/../lib/gcc/arm-eabi/4.5.1/../../../../arm-eabi/lib/thumb\libsysbase.a(build_argv.o)
                0x0205a6a0                build_argv
 .text          0x0205a6ec        0x0 c:/devkitpro/devkitarm/bin/../lib/gcc/arm-eabi/4.5.1/../../../../arm-eabi/lib/thumb\libsysbase.a(syscall_support.o)
 .text          0x0205a6ec       0x80 c:/devkitpro/devkitarm/bin/../lib/gcc/arm-eabi/4.5.1/../../../../arm-eabi/lib/thumb\libsysbase.a(handle_manager.o)
                0x0205a6ec                __release_handle
                0x0205a718                __alloc_handle
                0x0205a750                __get_handle
 .text          0x0205a76c       0x54 c:/devkitpro/devkitarm/bin/../lib/gcc/arm-eabi/4.5.1/thumb\libgcc.a(_arm_fixunsdfsi.o)
                0x0205a76c                __aeabi_d2uiz
                0x0205a76c                __fixunsdfsi
 .text          0x0205a7c0       0x3c c:/devkitpro/devkitarm/bin/../lib/gcc/arm-eabi/4.5.1/thumb\libgcc.a(_aeabi_uldivmod.o)
                0x0205a7c0                __aeabi_uldivmod
 .text          0x0205a7fc        0x0 c:/devkitpro/devkitarm/bin/../lib/gcc/arm-eabi/4.5.1/thumb/crtend.o
 .text          0x0205a7fc        0x0 c:/devkitpro/devkitarm/bin/../lib/gcc/arm-eabi/4.5.1/thumb/crtn.o
 *fill*         0x0205a7fc        0x4 ff
 .text.stub     0x0205a800       0x10 linker stubs
 *(.text.*)
 *(.stub)
 *(.gnu.warning)
 *(.gnu.linkonce.t*)
 *(.glue_7)
 .glue_7        0x00000000        0x0 linker stubs
 *(.glue_7t)
 .glue_7t       0x00000000        0x0 linker stubs
                0x0205a810                . = ALIGN (0x4)

.vfp11_veneer   0x00000000        0x0 load address 0x0205a810
 .vfp11_veneer  0x00000000        0x0 linker stubs

.v4_bx          0x00000000        0x0 load address 0x0205a810
 .v4_bx         0x00000000        0x0 linker stubs

.fini           0x0205a810        0xc
 *(.fini)
 .fini          0x0205a810        0x4 c:/devkitpro/devkitarm/bin/../lib/gcc/arm-eabi/4.5.1/thumb/crti.o
                0x0205a810                _fini
 .fini          0x0205a814        0x8 c:/devkitpro/devkitarm/bin/../lib/gcc/arm-eabi/4.5.1/thumb/crtn.o
                0x0205a81c                __text_end = .

.rodata         0x0205a820     0xc67c
 *(.rodata)
 .rodata        0x0205a820       0xfc ds_render.o
 .rodata        0x0205a91c       0x18 glMain.o
 .rodata        0x0205a934      0x3e8 template.o
 .rodata        0x0205ad1c      0x430 AM_MAP.o
 .rodata        0x0205b14c       0x70 CT_CHAT.o
 .rodata        0x0205b1bc      0x440 D_MAIN.o
 .rodata        0x0205b5fc      0x24c D_NET.o
 .rodata        0x0205b848      0xc64 F_FINALE.o
 .rodata        0x0205c4ac      0x190 G_GAME.o
 .rodata        0x0205c63c      0x400 INFO.o
 .rodata        0x0205ca3c      0x144 IN_LUDE.o
 .rodata        0x0205cb80       0x90 I_IBM.o
 .rodata        0x0205cc10       0x34 I_SOUND.o
                0x0205cc10                snd_prefixen
 .rodata        0x0205cc44      0x3b4 MN_MENU.o
 .rodata        0x0205cff8      0x43c M_MISC.o
 .rodata        0x0205d434       0x14 P_CEILNG.o
 .rodata        0x0205d448      0x104 P_DOORS.o
 .rodata        0x0205d54c       0xdc P_ENEMY.o
 .rodata        0x0205d628       0x28 P_FLOOR.o
 .rodata        0x0205d650      0x480 P_INTER.o
 .rodata        0x0205dad0       0x20 P_MAP.o
 .rodata        0x0205daf0       0x90 P_MOBJ.o
 .rodata        0x0205db80       0x48 P_PLATS.o
 .rodata        0x0205dbc8       0x18 P_PSPR.o
 .rodata        0x0205dbe0       0x24 P_SETUP.o
 .rodata        0x0205dc04      0x3a8 P_SPEC.o
 .rodata        0x0205dfac      0x1dc P_SWITCH.o
 .rodata        0x0205e188       0x74 P_TICK.o
 .rodata        0x0205e1fc       0x2c P_USER.o
 .rodata        0x0205e228      0x1d4 R_DATA.o
 .rodata        0x0205e3fc       0x6c R_MAIN.o
 .rodata        0x0205e468      0x188 R_THINGS.o
 .rodata        0x0205e5f0      0x32c SB_BAR.o
 .rodata        0x0205e91c      0x1d4 W_WAD.o
 .rodata        0x0205eaf0      0x2fc Z_ZONE.o
 .rodata        0x0205edec       0x68 ds_textures.o
 .rodata        0x0205ee54       0x3c geometry.o
 .rodata        0x0205ee90       0x44 soundst.o
 *fill*         0x0205eed4        0xc ff
 .rodata        0x0205eee0       0xc0 hexenarm.o
                0x0205eee0                HexenDivInt
                0x0205ef08                FixedMul
                0x0205ef20                FixedDiv
                0x0205ef54                FixedDiv2
 .rodata        0x0205efa0       0x64 c:/devkitPro/libnds/lib\libfat.a(libfat.o)
 .rodata        0x0205f004        0xc c:/devkitPro/libnds/lib\libfat.a(partition.o)
 .rodata        0x0205f010       0x54 c:/devkitPro/libnds/lib\libfat.a(directory.o)
 .rodata        0x0205f064       0x18 c:/devkitPro/libnds/lib\libfat.a(disc.o)
                0x0205f064                _FAT_disc_interfaces
 .rodata        0x0205f07c      0x200 c:/devkitPro/libnds/lib\libnds9.a(console.o)
 .rodata        0x0205f27c       0x40 c:/devkitPro/libnds/lib\libnds9.a(gurumeditation.o)
 .rodata        0x0205f2bc      0x308 c:/devkitPro/libnds/lib\libnds9.a(trig.o)
                0x0205f2bc                SIN_LUT
                0x0205f3c0                TAN_LUT
 .rodata        0x0205f5c4       0x68 c:/devkitPro/libnds/lib\libnds9.a(videoGL.o)
 .rodata        0x0205f62c        0xc c:/devkitPro/libnds/lib\libnds9.a(dldi.o)
                0x0205f62c                DLDI_MAGIC_STRING_BACKWARDS
                0x0205f634                DLDI_MAGIC_NUMBER
 .rodata        0x0205f638       0x20 c:/devkitPro/libnds/lib\libnds9.a(dsi_sd.o)
                0x0205f638                __io_dsisd
 .rodata        0x0205f658     0x2004 c:/devkitPro/libnds/lib\libnds9.a(default_font.bin.o)
                0x0205f658                default_font_bin
                0x02061658                default_font_bin_size
                0x02061658                default_font_bin_end
 .rodata        0x0206165c      0x188 c:/devkitpro/devkitarm/bin/../lib/gcc/arm-eabi/4.5.1/../../../../arm-eabi/lib/thumb\libm.a(lib_a-e_rem_pio2.o)
 *fill*         0x020617e4        0x4 ff
 .rodata        0x020617e8       0x50 c:/devkitpro/devkitarm/bin/../lib/gcc/arm-eabi/4.5.1/../../../../arm-eabi/lib/thumb\libm.a(lib_a-k_rem_pio2.o)
 .rodata        0x02061838       0x14 c:/devkitpro/devkitarm/bin/../lib/gcc/arm-eabi/4.5.1/thumb\libgcc.a(unwind-arm.o)
 .rodata        0x0206184c      0x104 c:/devkitpro/devkitarm/bin/../lib/gcc/arm-eabi/4.5.1/../../../../arm-eabi/lib/thumb\libg.a(lib_a-ctype_.o)
                0x0206184c                _ctype_
 .rodata        0x02061950        0x4 c:/devkitpro/devkitarm/bin/../lib/gcc/arm-eabi/4.5.1/../../../../arm-eabi/lib/thumb\libg.a(lib_a-impure.o)
                0x02061950                _global_impure_ptr
 .rodata        0x02061954      0x128 c:/devkitpro/devkitarm/bin/../lib/gcc/arm-eabi/4.5.1/../../../../arm-eabi/lib/thumb\libg.a(lib_a-locale.o)
 .rodata        0x02061a7c       0xa8 c:/devkitpro/devkitarm/bin/../lib/gcc/arm-eabi/4.5.1/../../../../arm-eabi/lib/thumb\libg.a(lib_a-mbtowc_r.o)
 .rodata        0x02061b24       0x60 c:/devkitpro/devkitarm/bin/../lib/gcc/arm-eabi/4.5.1/../../../../arm-eabi/lib/thumb\libg.a(lib_a-mktime.o)
 .rodata        0x02061b84       0x68 c:/devkitpro/devkitarm/bin/../lib/gcc/arm-eabi/4.5.1/../../../../arm-eabi/lib/thumb\libg.a(lib_a-mktm_r.o)
 .rodata        0x02061bec      0x340 c:/devkitpro/devkitarm/bin/../lib/gcc/arm-eabi/4.5.1/../../../../arm-eabi/lib/thumb\libg.a(lib_a-svfiscanf.o)
 .rodata        0x02061f2c      0x184 c:/devkitpro/devkitarm/bin/../lib/gcc/arm-eabi/4.5.1/../../../../arm-eabi/lib/thumb\libg.a(lib_a-svfprintf.o)
 .rodata        0x020620b0      0x47c c:/devkitpro/devkitarm/bin/../lib/gcc/arm-eabi/4.5.1/../../../../arm-eabi/lib/thumb\libg.a(lib_a-svfscanf.o)
 .rodata        0x0206252c      0x310 c:/devkitpro/devkitarm/bin/../lib/gcc/arm-eabi/4.5.1/../../../../arm-eabi/lib/thumb\libg.a(lib_a-towlower.o)
 .rodata        0x0206283c      0x2b8 c:/devkitpro/devkitarm/bin/../lib/gcc/arm-eabi/4.5.1/../../../../arm-eabi/lib/thumb\libg.a(lib_a-towupper.o)
 .rodata        0x02062af4      0x184 c:/devkitpro/devkitarm/bin/../lib/gcc/arm-eabi/4.5.1/../../../../arm-eabi/lib/thumb\libg.a(lib_a-vfiprintf.o)
 .rodata        0x02062c78      0x184 c:/devkitpro/devkitarm/bin/../lib/gcc/arm-eabi/4.5.1/../../../../arm-eabi/lib/thumb\libg.a(lib_a-vfprintf.o)
 .rodata        0x02062dfc      0x47c c:/devkitpro/devkitarm/bin/../lib/gcc/arm-eabi/4.5.1/../../../../arm-eabi/lib/thumb\libg.a(lib_a-vfscanf.o)
 .rodata        0x02063278     0x34f0 c:/devkitpro/devkitarm/bin/../lib/gcc/arm-eabi/4.5.1/../../../../arm-eabi/lib/thumb\libg.a(lib_a-jp2uc.o)
 .rodata        0x02066768      0x128 c:/devkitpro/devkitarm/bin/../lib/gcc/arm-eabi/4.5.1/../../../../arm-eabi/lib/thumb\libg.a(lib_a-mprec.o)
                0x02066778                __mprec_tens
                0x02066840                __mprec_bigtens
                0x02066868                __mprec_tinytens
 .rodata        0x02066890      0x100 c:/devkitpro/devkitarm/bin/../lib/gcc/arm-eabi/4.5.1/../../../../arm-eabi/lib/thumb\libg.a(lib_a-strtod.o)
 .rodata        0x02066990      0x184 c:/devkitpro/devkitarm/bin/../lib/gcc/arm-eabi/4.5.1/../../../../arm-eabi/lib/thumb\libg.a(lib_a-svfiprintf.o)
 .rodata        0x02066b14       0x64 c:/devkitpro/devkitarm/bin/../lib/gcc/arm-eabi/4.5.1/../../../../arm-eabi/lib/thumb\libsysbase.a(iosupport.o)
                0x02066b14                dotab_stdnull
 .rodata        0x02066b78        0xc c:/devkitpro/devkitarm/bin/../lib/gcc/arm-eabi/4.5.1/../../../../arm-eabi/lib/thumb\libsysbase.a(chdir.o)
                0x02066b78                DIRECTORY_PARENT
                0x02066b7c                DIRECTORY_SEPARATOR
                0x02066b80                DIRECTORY_THIS
 *all.rodata*(*)
 *(.roda)
 *(.rodata.*)
 .rodata.str1.4
                0x02066b84       0x14 c:/devkitPro/libnds/lib\libfat.a(libfat.o)
 .rodata.str1.4
                0x02066b98        0x7 c:/devkitPro/libnds/lib\libfat.a(directory.o)
                                  0x8 (size before relaxing)
 *fill*         0x02066b9f        0x1 ff
 .rodata.str1.4
                0x02066ba0        0x3 c:/devkitPro/libnds/lib\libfat.a(disc.o)
                                  0x8 (size before relaxing)
 *fill*         0x02066ba3        0x1 ff
 .rodata.str1.4
                0x02066ba4        0x5 c:/devkitPro/libnds/lib\libfat.a(fatdir.o)
                                  0x8 (size before relaxing)
 *fill*         0x02066ba9        0x3 ff
 .rodata.str1.4
                0x02066bac       0x49 c:/devkitPro/libnds/lib\libnds9.a(console.o)
                                 0x4c (size before relaxing)
 *fill*         0x02066bf5        0x3 ff
 .rodata.str1.4
                0x02066bf8       0xdc c:/devkitPro/libnds/lib\libnds9.a(gurumeditation.o)
 .rodata.str1.4
                0x02066cd4       0x44 c:/devkitPro/libnds/lib\libnds9.a(sassert.o)
 .rodata.str1.4
                0x02066d18        0x5 c:/devkitpro/devkitarm/bin/../lib/gcc/arm-eabi/4.5.1/../../../../arm-eabi/lib/thumb\libm.a(lib_a-w_sqrt.o)
                                  0x8 (size before relaxing)
 *fill*         0x02066d1d        0x3 ff
 .rodata.str1.4
                0x02066d20        0x2 c:/devkitpro/devkitarm/bin/../lib/gcc/arm-eabi/4.5.1/../../../../arm-eabi/lib/thumb\libg.a(lib_a-impure.o)
                                  0x4 (size before relaxing)
 *fill*         0x02066d22        0x2 ff
 .rodata.str1.4
                0x02066d24       0xe4 c:/devkitpro/devkitarm/bin/../lib/gcc/arm-eabi/4.5.1/../../../../arm-eabi/lib/thumb\libg.a(lib_a-locale.o)
                                 0xf0 (size before relaxing)
 .rodata.str1.4
                0x00000000        0x4 c:/devkitpro/devkitarm/bin/../lib/gcc/arm-eabi/4.5.1/../../../../arm-eabi/lib/thumb\libg.a(lib_a-mbrtowc.o)
 .rodata.str1.4
                0x00000000        0x4 c:/devkitpro/devkitarm/bin/../lib/gcc/arm-eabi/4.5.1/../../../../arm-eabi/lib/thumb\libg.a(lib_a-puts.o)
 .rodata.str1.4
                0x02066e08       0x42 c:/devkitpro/devkitarm/bin/../lib/gcc/arm-eabi/4.5.1/../../../../arm-eabi/lib/thumb\libg.a(lib_a-svfprintf.o)
                                 0x44 (size before relaxing)
 *fill*         0x02066e4a        0x2 ff
 .rodata.str1.4
                0x02066e4c        0x5 c:/devkitpro/devkitarm/bin/../lib/gcc/arm-eabi/4.5.1/../../../../arm-eabi/lib/thumb\libg.a(lib_a-svfscanf.o)
                                  0x8 (size before relaxing)
 *fill*         0x02066e51        0x3 ff
 .rodata.str1.4
                0x02066e54        0x4 c:/devkitpro/devkitarm/bin/../lib/gcc/arm-eabi/4.5.1/../../../../arm-eabi/lib/thumb\libg.a(lib_a-tzvars.o)
 .rodata.str1.4
                0x00000000       0x30 c:/devkitpro/devkitarm/bin/../lib/gcc/arm-eabi/4.5.1/../../../../arm-eabi/lib/thumb\libg.a(lib_a-vfiprintf.o)
 .rodata.str1.4
                0x00000000       0x44 c:/devkitpro/devkitarm/bin/../lib/gcc/arm-eabi/4.5.1/../../../../arm-eabi/lib/thumb\libg.a(lib_a-vfprintf.o)
 .rodata.str1.4
                0x00000000        0x8 c:/devkitpro/devkitarm/bin/../lib/gcc/arm-eabi/4.5.1/../../../../arm-eabi/lib/thumb\libg.a(lib_a-vfscanf.o)
 .rodata.str1.4
                0x02066e58       0x10 c:/devkitpro/devkitarm/bin/../lib/gcc/arm-eabi/4.5.1/../../../../arm-eabi/lib/thumb\libg.a(lib_a-dtoa.o)
                                 0x14 (size before relaxing)
 .rodata.str1.4
                0x00000000       0x14 c:/devkitpro/devkitarm/bin/../lib/gcc/arm-eabi/4.5.1/../../../../arm-eabi/lib/thumb\libg.a(lib_a-jp2uc.o)
 .rodata.str1.4
                0x02066e68        0xf c:/devkitpro/devkitarm/bin/../lib/gcc/arm-eabi/4.5.1/../../../../arm-eabi/lib/thumb\libg.a(lib_a-strtod.o)
                                 0x10 (size before relaxing)
 .rodata.str1.4
                0x00000000       0x30 c:/devkitpro/devkitarm/bin/../lib/gcc/arm-eabi/4.5.1/../../../../arm-eabi/lib/thumb\libg.a(lib_a-svfiprintf.o)
 *fill*         0x02066e77        0x1 ff
 .rodata.str1.4
                0x02066e78       0x1b c:/devkitpro/devkitarm/bin/../lib/gcc/arm-eabi/4.5.1/../../../../arm-eabi/lib/thumb\libg.a(lib_a-gdtoa-gethex.o)
                                 0x1c (size before relaxing)
 *fill*         0x02066e93        0x1 ff
 .rodata.str1.4
                0x02066e94        0x8 c:/devkitpro/devkitarm/bin/../lib/gcc/arm-eabi/4.5.1/../../../../arm-eabi/lib/thumb\libsysbase.a(iosupport.o)
 *(.gnu.linkonce.r*)
                0x02066e9c                . = ALIGN (0x4)

.ARM.extab      0x02066e9c       0xc0
 *(.ARM.extab* .gnu.linkonce.armextab.*)
 .ARM.extab     0x02066e9c        0x0 c:/devkitpro/devkitarm/bin/../lib/gcc/arm-eabi/4.5.1/thumb\libgcc.a(bpabi.o)
 .ARM.extab     0x02066e9c       0x78 c:/devkitpro/devkitarm/bin/../lib/gcc/arm-eabi/4.5.1/thumb\libgcc.a(unwind-arm.o)
 .ARM.extab     0x02066f14       0x30 c:/devkitpro/devkitarm/bin/../lib/gcc/arm-eabi/4.5.1/thumb\libgcc.a(pr-support.o)
 .ARM.extab     0x02066f44        0xc c:/devkitpro/devkitarm/bin/../lib/gcc/arm-eabi/4.5.1/thumb\libgcc.a(_divdi3.o)
 .ARM.extab     0x02066f50        0xc c:/devkitpro/devkitarm/bin/../lib/gcc/arm-eabi/4.5.1/thumb\libgcc.a(_udivdi3.o)
                0x02066f5c                __exidx_start = .

.ARM.exidx      0x02066f5c       0xf8
 *(.ARM.exidx* .gnu.linkonce.armexidx.*)
 .ARM.exidx     0x02066f5c        0x8 c:/devkitpro/devkitarm/bin/../lib/gcc/arm-eabi/4.5.1/thumb\libgcc.a(bpabi.o)
                                 0x10 (size before relaxing)
 .ARM.exidx     0x02066f64       0xa0 c:/devkitpro/devkitarm/bin/../lib/gcc/arm-eabi/4.5.1/thumb\libgcc.a(unwind-arm.o)
                                 0xc0 (size before relaxing)
 .ARM.exidx     0x02067004       0x38 c:/devkitpro/devkitarm/bin/../lib/gcc/arm-eabi/4.5.1/thumb\libgcc.a(pr-support.o)
                                 0x48 (size before relaxing)
 .ARM.exidx     0x0206703c        0x8 c:/devkitpro/devkitarm/bin/../lib/gcc/arm-eabi/4.5.1/thumb\libgcc.a(_divdi3.o)
 .ARM.exidx     0x02067044       0x10 c:/devkitpro/devkitarm/bin/../lib/gcc/arm-eabi/4.5.1/thumb\libgcc.a(_udivdi3.o)
                                  0x8 (size before relaxing)
                0x02067054                __exidx_end = .
                0x02067054                . = ALIGN (0x4)
                0x02067054                PROVIDE (__preinit_array_start, .)

.preinit_array
 *(.preinit_array)
                0x02067054                PROVIDE (__preinit_array_end, .)
                0x02067054                PROVIDE (__init_array_start, .)

.init_array     0x02067054        0x4
 *(SORT(.init_array.*))
 *(.init_array)
 .init_array    0x02067054        0x4 c:/devkitpro/devkitarm/bin/../lib/gcc/arm-eabi/4.5.1/thumb/crtbegin.o
                0x02067058                PROVIDE (__init_array_end, .)
                0x02067058                PROVIDE (__fini_array_start, .)

.fini_array     0x02067058        0x4
 *(.fini_array)
 .fini_array    0x02067058        0x4 c:/devkitpro/devkitarm/bin/../lib/gcc/arm-eabi/4.5.1/thumb/crtbegin.o
 *(SORT(.fini_array.*))
                0x0206705c                PROVIDE (__fini_array_end, .)

.ctors          0x0206705c        0x0
 *crtbegin.o(.ctors)
 *(EXCLUDE_FILE(*crtend.o) .ctors)
 *(SORT(.ctors.*))
 *(.ctors)
                0x0206705c                . = ALIGN (0x4)

.dtors          0x0206705c        0x0
 *crtbegin.o(.dtors)
 *(EXCLUDE_FILE(*crtend.o) .dtors)
 *(SORT(.dtors.*))
 *(.dtors)
                0x0206705c                . = ALIGN (0x4)

.eh_frame       0x0206705c        0x4
 *(.eh_frame)
 .eh_frame      0x0206705c        0x0 c:/devkitpro/devkitarm/bin/../lib/gcc/arm-eabi/4.5.1/thumb/crtbegin.o
 .eh_frame      0x0206705c        0x4 c:/devkitpro/devkitarm/bin/../lib/gcc/arm-eabi/4.5.1/thumb/crtend.o
                0x02067060                . = ALIGN (0x4)

.gcc_except_table
                0x02067060        0x0
 *(.gcc_except_table)
                0x02067060                . = ALIGN (0x4)

.jcr            0x02067060        0x4
 *(.jcr)
 .jcr           0x02067060        0x0 c:/devkitpro/devkitarm/bin/../lib/gcc/arm-eabi/4.5.1/thumb/crtbegin.o
 .jcr           0x02067060        0x4 c:/devkitpro/devkitarm/bin/../lib/gcc/arm-eabi/4.5.1/thumb/crtend.o

.got
 *(.got.plt)
 *(.got)
 *(.rel.got)

.ewram          0x02067064        0x0
                0x02067064                __ewram_start = ABSOLUTE (.)
 *(.ewram)
 *ewram.*(.text)
                0x02067064                . = ALIGN (0x4)

.data           0x02067064    0x204a8
                0x02067064                __data_start = ABSOLUTE (.)
 *(.data)
 .data          0x02067064        0x0 c:/devkitpro/devkitarm/bin/../lib/gcc/arm-eabi/4.5.1/../../../../arm-eabi/lib/thumb/ds_arm9_crt0.o
 .data          0x02067064        0x0 c:/devkitpro/devkitarm/bin/../lib/gcc/arm-eabi/4.5.1/thumb/crti.o
 .data          0x02067064        0x4 c:/devkitpro/devkitarm/bin/../lib/gcc/arm-eabi/4.5.1/thumb/crtbegin.o
                0x02067064                __dso_handle
 .data          0x02067068       0x10 ds_render.o
                0x0206706c                viewwidth
                0x02067070                viewheight
                0x02067074                lightDistance
 .data          0x02067078        0xc glMain.o
                0x0206707c                DS_FLOAT_VAL
                0x02067080                draw_windings
 .data          0x02067084        0x4 template.o
 .data          0x02067088      0x108 AM_MAP.o
                0x0206708c                LevelNames
 .data          0x02067190       0x14 CT_CHAT.o
                0x02067194                CT_FromPlrText
 .data          0x020671a4       0x58 D_MAIN.o
                0x020671a8                wadfiles
                0x020671f8                basedefault
 .data          0x020671fc        0x4 D_NET.o
 .data          0x02067200       0x18 F_FINALE.o
                0x02067204                e1text
                0x02067208                e2text
                0x0206720c                e3text
                0x02067210                e4text
                0x02067214                e5text
 .data          0x02067218      0x10c G_GAME.o
                0x0206721c                MonsterMissileInfo
                0x020672d0                precache
                0x020672d4                forwardmove
                0x020672dc                sidemove
                0x020672e4                angleturn
                0x020672f0                mousebuttons
                0x020672f4                joybuttons
                0x020672f8                usearti
 *fill*         0x02067324        0xc ff
 .data          0x02067330     0xc1e0 INFO.o
                0x02067340                sprnames
                0x02067544                states
                0x0206f910                mobjinfo
 .data          0x02073510       0xfc IN_LUDE.o
 .data          0x0207360c       0xb8 I_IBM.o
                0x02073610                scantokey
                0x02073690                ds_pal_init
                0x02073694                ds_keys
 .data          0x020736c4        0x4 I_SOUND.o
 .data          0x020736c8      0x434 MN_MENU.o
                0x02073aec                QuitEndMsg
 .data          0x02073afc      0x4ec M_MISC.o
                0x02073b00                rndtable
                0x02073c00                defaults
 .data          0x02073fe8        0x4 P_CEILNG.o
 .data          0x02073fec        0x4 P_DOORS.o
 .data          0x02073ff0       0x94 P_ENEMY.o
                0x02073ff4                xspeed
                0x02074014                yspeed
                0x02074034                opposite
                0x02074040                diags
 .data          0x02074084        0x4 P_FLOOR.o
 .data          0x02074088       0x6c P_INTER.o
                0x0207408c                WeaponValue
                0x020740b0                maxammo
 .data          0x020740f4        0x4 P_LIGHTS.o
 .data          0x020740f8        0x4 P_MAP.o
 .data          0x020740fc        0x4 P_MAPUTL.o
 .data          0x02074100      0x110 P_MOBJ.o
 .data          0x02074210        0x4 P_PLATS.o
 .data          0x02074214      0x244 P_PSPR.o
                0x02074260                wpnlev1info
                0x0207435c                wpnlev2info
 .data          0x02074458        0x4 P_SETUP.o
 .data          0x0207445c        0x4 P_SIGHT.o
 .data          0x02074460      0x458 P_SPEC.o
                0x02074464                AmbSndSeqInit
                0x02074468                AmbSndSeq1
                0x02074474                AmbSndSeq2
                0x02074480                AmbSndSeq3
                0x02074514                AmbSndSeq4
                0x020745ac                AmbSndSeq5
                0x020745e8                AmbSndSeq6
                0x02074630                AmbSndSeq7
                0x0207463c                AmbSndSeq8
                0x02074648                AmbSndSeq9
                0x020746b8                AmbSndSeq10
                0x02074750                AmbientSfx
                0x02074778                animdefs
                0x02074874                TerrainTypeDefs
 .data          0x020748b8       0x40 P_SWITCH.o
                0x020748bc                alphSwitchList
 .data          0x020748f8        0x4 P_TELEPT.o
 .data          0x020748fc        0x4 P_TICK.o
 .data          0x02074900       0x28 P_USER.o
                0x02074904                WeaponInShareware
 .data          0x02074928        0x4 R_DATA.o
 .data          0x0207492c        0xc R_MAIN.o
                0x02074930                validcount
                0x02074934                finecosine
 .data          0x02074938        0x4 R_THINGS.o
 .data          0x0207493c      0x2f8 SB_BAR.o
                0x02074b68                patcharti
                0x02074bd8                ammopic
                0x02074c14                SB_state
 .data          0x02074c34     0x1428 SOUNDS.o
                0x02074c38                S_music
                0x02074e9c                S_sfx
 .data          0x0207605c    0x10008 TABLES.o
                0x02076060                finetangent
                0x0207a060                finesine
                0x02084060                tantoangle
 .data          0x02086064      0x504 V_VIDEO.o
                0x02086068                gammatable
 .data          0x02086568        0x4 W_WAD.o
 .data          0x0208656c        0x4 Z_ZONE.o
 .data          0x02086570       0x5c ds_textures.o
                0x02086574                ds_blank_texture2
                0x020865b4                ds_blank_tex
 .data          0x020865cc        0x4 geometry.o
 .data          0x020865d0        0x4 polylib.o
 .data          0x020865d4        0x8 soundst.o
                0x020865d8                mus_song
 .data          0x020865dc        0x0 hexenarm.o
 .data          0x020865dc        0x0 c:/devkitPro/libnds/lib\libfat.a(libfat.o)
 .data          0x020865dc        0x0 c:/devkitPro/libnds/lib\libfat.a(partition.o)
 .data          0x020865dc        0x0 c:/devkitPro/libnds/lib\libfat.a(cache.o)
 .data          0x020865dc        0x0 c:/devkitPro/libnds/lib\libfat.a(directory.o)
 .data          0x020865dc        0x0 c:/devkitPro/libnds/lib\libfat.a(disc.o)
 .data          0x020865dc        0x0 c:/devkitPro/libnds/lib\libfat.a(fatdir.o)
 .data          0x020865dc        0x0 c:/devkitPro/libnds/lib\libfat.a(fatfile.o)
 .data          0x020865dc        0x0 c:/devkitPro/libnds/lib\libfat.a(file_allocation_table.o)
 .data          0x020865dc        0x0 c:/devkitPro/libnds/lib\libfat.a(filetime.o)
 .data          0x020865dc        0x0 c:/devkitPro/libnds/lib\libfat.a(lock.o)
 .data          0x020865dc       0x60 c:/devkitPro/libnds/lib\libnds9.a(background.o)
                0x020865dc                bgScrollTable
                0x020865fc                bgTransform
                0x0208661c                bgControl
 .data          0x0208663c       0x64 c:/devkitPro/libnds/lib\libnds9.a(console.o)
                0x0208663c                currentConsole
                0x02086640                defaultConsole
 .data          0x020866a0        0x0 c:/devkitPro/libnds/lib\libnds9.a(gurumeditation.o)
 .data          0x020866a0        0x3 c:/devkitPro/libnds/lib\libnds9.a(keys.o)
 .data          0x020866a3        0x0 c:/devkitPro/libnds/lib\libnds9.a(sassert.o)
 .data          0x020866a3        0x0 c:/devkitPro/libnds/lib\libnds9.a(sound.o)
 .data          0x020866a3        0x0 c:/devkitPro/libnds/lib\libnds9.a(touch.o)
 .data          0x020866a3        0x0 c:/devkitPro/libnds/lib\libnds9.a(trig.o)
 .data          0x020866a3        0x0 c:/devkitPro/libnds/lib\libnds9.a(video.o)
 *fill*         0x020866a3        0x1 ff
 .data          0x020866a4        0x4 c:/devkitPro/libnds/lib\libnds9.a(videoGL.o)
 .data          0x020866a8        0x4 c:/devkitPro/libnds/lib\libnds9.a(dldi.o)
                0x020866a8                io_dldi_data
 .data          0x020866ac        0x0 c:/devkitPro/libnds/lib\libnds9.a(dsi_sd.o)
 .data          0x020866ac        0x0 c:/devkitPro/libnds/lib\libnds9.a(initSystem.o)
 .data          0x020866ac       0x10 c:/devkitPro/libnds/lib\libnds9.a(fifosystem.o)
                0x020866ac                fifo_freewords
                0x020866b0                fifo_buffer_free
                0x020866b4                fifo_send_queue
                0x020866b8                fifo_receive_queue
 .data          0x020866bc        0x0 c:/devkitPro/libnds/lib\libnds9.a(interrupts.o)
 .data          0x020866bc        0x0 c:/devkitPro/libnds/lib\libnds9.a(libnds_exit.o)
 .data          0x020866bc        0x0 c:/devkitPro/libnds/lib\libnds9.a(dcache.o)
 .data          0x020866bc        0x0 c:/devkitPro/libnds/lib\libnds9.a(exceptionHandler.o)
 .data          0x020866bc        0x0 c:/devkitPro/libnds/lib\libnds9.a(dldi_stub.o)
 .data          0x020866bc        0x0 c:/devkitPro/libnds/lib\libnds9.a(mpu_setup.o)
 .data          0x020866bc        0x0 c:/devkitPro/libnds/lib\libnds9.a(biosCalls.o)
 .data          0x020866bc        0x0 c:/devkitPro/libnds/lib\libnds9.a(debugprint.o)
 .data          0x020866bc        0x0 c:/devkitPro/libnds/lib\libnds9.a(interruptDispatcher.o)
 .data          0x020866bc        0x0 c:/devkitPro/libnds/lib\libnds9.a(swiSoftReset.o)
 .data          0x020866bc        0x0 c:/devkitPro/libnds/lib\libnds9.a(default_font.bin.o)
 .data          0x020866bc        0x0 c:/devkitPro/libnds/lib\libnds9.a(dynamicArray.o)
 .data          0x020866bc        0x0 c:/devkitPro/libnds/lib\libnds9.a(exceptions.o)
 .data          0x020866bc        0x0 c:/devkitPro/libnds/lib\libnds9.a(system.o)
 .data          0x020866bc        0x0 c:/devkitpro/devkitarm/bin/../lib/gcc/arm-eabi/4.5.1/../../../../arm-eabi/lib/thumb\libm.a(lib_a-s_ceil.o)
 .data          0x020866bc        0x0 c:/devkitpro/devkitarm/bin/../lib/gcc/arm-eabi/4.5.1/../../../../arm-eabi/lib/thumb\libm.a(lib_a-s_cos.o)
 .data          0x020866bc        0x0 c:/devkitpro/devkitarm/bin/../lib/gcc/arm-eabi/4.5.1/../../../../arm-eabi/lib/thumb\libm.a(lib_a-s_floor.o)
 .data          0x020866bc        0x0 c:/devkitpro/devkitarm/bin/../lib/gcc/arm-eabi/4.5.1/../../../../arm-eabi/lib/thumb\libm.a(lib_a-s_sin.o)
 .data          0x020866bc        0x0 c:/devkitpro/devkitarm/bin/../lib/gcc/arm-eabi/4.5.1/../../../../arm-eabi/lib/thumb\libm.a(lib_a-s_tan.o)
 .data          0x020866bc        0x0 c:/devkitpro/devkitarm/bin/../lib/gcc/arm-eabi/4.5.1/../../../../arm-eabi/lib/thumb\libm.a(lib_a-w_sqrt.o)
 .data          0x020866bc        0x0 c:/devkitpro/devkitarm/bin/../lib/gcc/arm-eabi/4.5.1/../../../../arm-eabi/lib/thumb\libm.a(lib_a-e_rem_pio2.o)
 .data          0x020866bc        0x0 c:/devkitpro/devkitarm/bin/../lib/gcc/arm-eabi/4.5.1/../../../../arm-eabi/lib/thumb\libm.a(lib_a-e_sqrt.o)
 .data          0x020866bc        0x0 c:/devkitpro/devkitarm/bin/../lib/gcc/arm-eabi/4.5.1/../../../../arm-eabi/lib/thumb\libm.a(lib_a-k_cos.o)
 .data          0x020866bc        0x0 c:/devkitpro/devkitarm/bin/../lib/gcc/arm-eabi/4.5.1/../../../../arm-eabi/lib/thumb\libm.a(lib_a-k_rem_pio2.o)
 .data          0x020866bc        0x0 c:/devkitpro/devkitarm/bin/../lib/gcc/arm-eabi/4.5.1/../../../../arm-eabi/lib/thumb\libm.a(lib_a-k_sin.o)
 .data          0x020866bc        0x0 c:/devkitpro/devkitarm/bin/../lib/gcc/arm-eabi/4.5.1/../../../../arm-eabi/lib/thumb\libm.a(lib_a-k_tan.o)
 .data          0x020866bc        0x0 c:/devkitpro/devkitarm/bin/../lib/gcc/arm-eabi/4.5.1/../../../../arm-eabi/lib/thumb\libm.a(lib_a-s_fabs.o)
 .data          0x020866bc        0x0 c:/devkitpro/devkitarm/bin/../lib/gcc/arm-eabi/4.5.1/../../../../arm-eabi/lib/thumb\libm.a(lib_a-s_fpclassify.o)
 .data          0x020866bc        0x1 c:/devkitpro/devkitarm/bin/../lib/gcc/arm-eabi/4.5.1/../../../../arm-eabi/lib/thumb\libm.a(lib_a-s_lib_ver.o)
                0x020866bc                __fdlib_version
 .data          0x020866bd        0x0 c:/devkitpro/devkitarm/bin/../lib/gcc/arm-eabi/4.5.1/../../../../arm-eabi/lib/thumb\libm.a(lib_a-s_matherr.o)
 .data          0x020866bd        0x0 c:/devkitpro/devkitarm/bin/../lib/gcc/arm-eabi/4.5.1/../../../../arm-eabi/lib/thumb\libm.a(lib_a-s_scalbn.o)
 .data          0x020866bd        0x0 c:/devkitpro/devkitarm/bin/../lib/gcc/arm-eabi/4.5.1/../../../../arm-eabi/lib/thumb\libm.a(lib_a-s_copysign.o)
 .data          0x020866bd        0x0 c:/devkitpro/devkitarm/bin/../lib/gcc/arm-eabi/4.5.1/thumb\libgcc.a(_udivsi3.o)
 .data          0x020866bd        0x0 c:/devkitpro/devkitarm/bin/../lib/gcc/arm-eabi/4.5.1/thumb\libgcc.a(_divsi3.o)
 .data          0x020866bd        0x0 c:/devkitpro/devkitarm/bin/../lib/gcc/arm-eabi/4.5.1/thumb\libgcc.a(_dvmd_tls.o)
 .data          0x020866bd        0x0 c:/devkitpro/devkitarm/bin/../lib/gcc/arm-eabi/4.5.1/thumb\libgcc.a(_arm_addsubdf3.o)
 .data          0x020866bd        0x0 c:/devkitpro/devkitarm/bin/../lib/gcc/arm-eabi/4.5.1/thumb\libgcc.a(_arm_muldivdf3.o)
 .data          0x020866bd        0x0 c:/devkitpro/devkitarm/bin/../lib/gcc/arm-eabi/4.5.1/thumb\libgcc.a(_arm_cmpdf2.o)
 .data          0x020866bd        0x0 c:/devkitpro/devkitarm/bin/../lib/gcc/arm-eabi/4.5.1/thumb\libgcc.a(_arm_fixdfsi.o)
 .data          0x020866bd        0x0 c:/devkitpro/devkitarm/bin/../lib/gcc/arm-eabi/4.5.1/thumb\libgcc.a(_arm_truncdfsf2.o)
 .data          0x020866bd        0x0 c:/devkitpro/devkitarm/bin/../lib/gcc/arm-eabi/4.5.1/thumb\libgcc.a(_arm_addsubsf3.o)
 .data          0x020866bd        0x0 c:/devkitpro/devkitarm/bin/../lib/gcc/arm-eabi/4.5.1/thumb\libgcc.a(_arm_muldivsf3.o)
 .data          0x020866bd        0x0 c:/devkitpro/devkitarm/bin/../lib/gcc/arm-eabi/4.5.1/thumb\libgcc.a(_arm_cmpsf2.o)
 .data          0x020866bd        0x0 c:/devkitpro/devkitarm/bin/../lib/gcc/arm-eabi/4.5.1/thumb\libgcc.a(_arm_fixsfsi.o)
 .data          0x020866bd        0x0 c:/devkitpro/devkitarm/bin/../lib/gcc/arm-eabi/4.5.1/thumb\libgcc.a(_arm_fixunssfsi.o)
 .data          0x020866bd        0x0 c:/devkitpro/devkitarm/bin/../lib/gcc/arm-eabi/4.5.1/thumb\libgcc.a(_aeabi_ldivmod.o)
 .data          0x020866bd        0x0 c:/devkitpro/devkitarm/bin/../lib/gcc/arm-eabi/4.5.1/thumb\libgcc.a(_muldi3.o)
 .data          0x020866bd        0x0 c:/devkitpro/devkitarm/bin/../lib/gcc/arm-eabi/4.5.1/thumb\libgcc.a(bpabi.o)
 .data          0x020866bd        0x0 c:/devkitpro/devkitarm/bin/../lib/gcc/arm-eabi/4.5.1/thumb\libgcc.a(unwind-arm.o)
 .data          0x020866bd        0x0 c:/devkitpro/devkitarm/bin/../lib/gcc/arm-eabi/4.5.1/thumb\libgcc.a(libunwind.o)
 .data          0x020866bd        0x0 c:/devkitpro/devkitarm/bin/../lib/gcc/arm-eabi/4.5.1/thumb\libgcc.a(pr-support.o)
 .data          0x020866bd        0x0 c:/devkitpro/devkitarm/bin/../lib/gcc/arm-eabi/4.5.1/thumb\libgcc.a(_divdi3.o)
 .data          0x020866bd        0x0 c:/devkitpro/devkitarm/bin/../lib/gcc/arm-eabi/4.5.1/thumb\libgcc.a(_udivdi3.o)
 .data          0x020866bd        0x0 c:/devkitpro/devkitarm/bin/../lib/gcc/arm-eabi/4.5.1/thumb\libgcc.a(_clzsi2.o)
 .data          0x020866bd        0x0 c:/devkitpro/devkitarm/bin/../lib/gcc/arm-eabi/4.5.1/../../../../arm-eabi/lib/thumb\libg.a(lib_a-abort.o)
 .data          0x020866bd        0x0 c:/devkitpro/devkitarm/bin/../lib/gcc/arm-eabi/4.5.1/../../../../arm-eabi/lib/thumb\libg.a(lib_a-access.o)
 .data          0x020866bd        0x0 c:/devkitpro/devkitarm/bin/../lib/gcc/arm-eabi/4.5.1/../../../../arm-eabi/lib/thumb\libg.a(lib_a-atoi.o)
 .data          0x020866bd        0x0 c:/devkitpro/devkitarm/bin/../lib/gcc/arm-eabi/4.5.1/../../../../arm-eabi/lib/thumb\libg.a(lib_a-bsearch.o)
 .data          0x020866bd        0x0 c:/devkitpro/devkitarm/bin/../lib/gcc/arm-eabi/4.5.1/../../../../arm-eabi/lib/thumb\libg.a(lib_a-calloc.o)
 .data          0x020866bd        0x0 c:/devkitpro/devkitarm/bin/../lib/gcc/arm-eabi/4.5.1/../../../../arm-eabi/lib/thumb\libg.a(lib_a-callocr.o)
 *fill*         0x020866bd        0x3 ff
 .data          0x020866c0        0x4 c:/devkitpro/devkitarm/bin/../lib/gcc/arm-eabi/4.5.1/../../../../arm-eabi/lib/thumb\libg.a(lib_a-ctype_.o)
                0x020866c0                __ctype_ptr__
 .data          0x020866c4        0x0 c:/devkitpro/devkitarm/bin/../lib/gcc/arm-eabi/4.5.1/../../../../arm-eabi/lib/thumb\libg.a(lib_a-errno.o)
 .data          0x020866c4        0x0 c:/devkitpro/devkitarm/bin/../lib/gcc/arm-eabi/4.5.1/../../../../arm-eabi/lib/thumb\libg.a(lib_a-exit.o)
 .data          0x020866c4        0x0 c:/devkitpro/devkitarm/bin/../lib/gcc/arm-eabi/4.5.1/../../../../arm-eabi/lib/thumb\libg.a(lib_a-fclose.o)
 .data          0x020866c4        0x0 c:/devkitpro/devkitarm/bin/../lib/gcc/arm-eabi/4.5.1/../../../../arm-eabi/lib/thumb\libg.a(lib_a-fflush.o)
 .data          0x020866c4        0x0 c:/devkitpro/devkitarm/bin/../lib/gcc/arm-eabi/4.5.1/../../../../arm-eabi/lib/thumb\libg.a(lib_a-findfp.o)
 .data          0x020866c4        0x0 c:/devkitpro/devkitarm/bin/../lib/gcc/arm-eabi/4.5.1/../../../../arm-eabi/lib/thumb\libg.a(lib_a-fopen.o)
 .data          0x020866c4        0x0 c:/devkitpro/devkitarm/bin/../lib/gcc/arm-eabi/4.5.1/../../../../arm-eabi/lib/thumb\libg.a(lib_a-fprintf.o)
 .data          0x020866c4        0x0 c:/devkitpro/devkitarm/bin/../lib/gcc/arm-eabi/4.5.1/../../../../arm-eabi/lib/thumb\libg.a(lib_a-fputc.o)
 .data          0x020866c4        0x0 c:/devkitpro/devkitarm/bin/../lib/gcc/arm-eabi/4.5.1/../../../../arm-eabi/lib/thumb\libg.a(lib_a-fread.o)
 .data          0x020866c4        0x0 c:/devkitpro/devkitarm/bin/../lib/gcc/arm-eabi/4.5.1/../../../../arm-eabi/lib/thumb\libg.a(lib_a-freer.o)
 .data          0x020866c4        0x0 c:/devkitpro/devkitarm/bin/../lib/gcc/arm-eabi/4.5.1/../../../../arm-eabi/lib/thumb\libg.a(lib_a-fscanf.o)
 .data          0x020866c4        0x0 c:/devkitpro/devkitarm/bin/../lib/gcc/arm-eabi/4.5.1/../../../../arm-eabi/lib/thumb\libg.a(lib_a-fseek.o)
 .data          0x020866c4        0x0 c:/devkitpro/devkitarm/bin/../lib/gcc/arm-eabi/4.5.1/../../../../arm-eabi/lib/thumb\libg.a(lib_a-ftell.o)
 .data          0x020866c4        0x0 c:/devkitpro/devkitarm/bin/../lib/gcc/arm-eabi/4.5.1/../../../../arm-eabi/lib/thumb\libg.a(lib_a-fwalk.o)
 .data          0x020866c4        0x0 c:/devkitpro/devkitarm/bin/../lib/gcc/arm-eabi/4.5.1/../../../../arm-eabi/lib/thumb\libg.a(lib_a-fwrite.o)
 *fill*         0x020866c4        0x4 ff
 .data          0x020866c8      0x430 c:/devkitpro/devkitarm/bin/../lib/gcc/arm-eabi/4.5.1/../../../../arm-eabi/lib/thumb\libg.a(lib_a-impure.o)
                0x020866c8                _impure_ptr
 .data          0x02086af8        0x0 c:/devkitpro/devkitarm/bin/../lib/gcc/arm-eabi/4.5.1/../../../../arm-eabi/lib/thumb\libg.a(lib_a-init.o)
 .data          0x02086af8        0x0 c:/devkitpro/devkitarm/bin/../lib/gcc/arm-eabi/4.5.1/../../../../arm-eabi/lib/thumb\libg.a(lib_a-iprintf.o)
 .data          0x02086af8        0x0 c:/devkitpro/devkitarm/bin/../lib/gcc/arm-eabi/4.5.1/../../../../arm-eabi/lib/thumb\libg.a(lib_a-lcltime_r.o)
 .data          0x02086af8      0x144 c:/devkitpro/devkitarm/bin/../lib/gcc/arm-eabi/4.5.1/../../../../arm-eabi/lib/thumb\libg.a(lib_a-locale.o)
                0x02086af8                __default_locale
                0x02086b38                __mb_cur_max
 .data          0x02086c3c        0x0 c:/devkitpro/devkitarm/bin/../lib/gcc/arm-eabi/4.5.1/../../../../arm-eabi/lib/thumb\libg.a(lib_a-makebuf.o)
 .data          0x02086c3c        0x0 c:/devkitpro/devkitarm/bin/../lib/gcc/arm-eabi/4.5.1/../../../../arm-eabi/lib/thumb\libg.a(lib_a-malloc.o)
 .data          0x02086c3c      0x410 c:/devkitpro/devkitarm/bin/../lib/gcc/arm-eabi/4.5.1/../../../../arm-eabi/lib/thumb\libg.a(lib_a-mallocr.o)
                0x02086c3c                __malloc_av_
                0x02087044                __malloc_sbrk_base
                0x02087048                __malloc_trim_threshold
 .data          0x0208704c        0x0 c:/devkitpro/devkitarm/bin/../lib/gcc/arm-eabi/4.5.1/../../../../arm-eabi/lib/thumb\libg.a(lib_a-mbrtowc.o)
 .data          0x0208704c        0x0 c:/devkitpro/devkitarm/bin/../lib/gcc/arm-eabi/4.5.1/../../../../arm-eabi/lib/thumb\libg.a(lib_a-mbsrtowcs.o)
 .data          0x0208704c        0x4 c:/devkitpro/devkitarm/bin/../lib/gcc/arm-eabi/4.5.1/../../../../arm-eabi/lib/thumb\libg.a(lib_a-mbtowc_r.o)
                0x0208704c                __mbtowc
 .data          0x02087050        0x0 c:/devkitpro/devkitarm/bin/../lib/gcc/arm-eabi/4.5.1/../../../../arm-eabi/lib/thumb\libg.a(lib_a-memchr.o)
 .data          0x02087050        0x0 c:/devkitpro/devkitarm/bin/../lib/gcc/arm-eabi/4.5.1/../../../../arm-eabi/lib/thumb\libg.a(lib_a-memcmp.o)
 .data          0x02087050        0x0 c:/devkitpro/devkitarm/bin/../lib/gcc/arm-eabi/4.5.1/../../../../arm-eabi/lib/thumb\libg.a(lib_a-memcpy.o)
 .data          0x02087050        0x0 c:/devkitpro/devkitarm/bin/../lib/gcc/arm-eabi/4.5.1/../../../../arm-eabi/lib/thumb\libg.a(lib_a-memmove.o)
 .data          0x02087050        0x0 c:/devkitpro/devkitarm/bin/../lib/gcc/arm-eabi/4.5.1/../../../../arm-eabi/lib/thumb\libg.a(lib_a-memset.o)
 .data          0x02087050        0x0 c:/devkitpro/devkitarm/bin/../lib/gcc/arm-eabi/4.5.1/../../../../arm-eabi/lib/thumb\libg.a(lib_a-mktime.o)
 .data          0x02087050        0x0 c:/devkitpro/devkitarm/bin/../lib/gcc/arm-eabi/4.5.1/../../../../arm-eabi/lib/thumb\libg.a(lib_a-mktm_r.o)
 .data          0x02087050        0x0 c:/devkitpro/devkitarm/bin/../lib/gcc/arm-eabi/4.5.1/../../../../arm-eabi/lib/thumb\libg.a(lib_a-mlock.o)
 .data          0x02087050        0x0 c:/devkitpro/devkitarm/bin/../lib/gcc/arm-eabi/4.5.1/../../../../arm-eabi/lib/thumb\libg.a(lib_a-printf.o)
 .data          0x02087050        0x0 c:/devkitpro/devkitarm/bin/../lib/gcc/arm-eabi/4.5.1/../../../../arm-eabi/lib/thumb\libg.a(lib_a-putc.o)
 .data          0x02087050        0x0 c:/devkitpro/devkitarm/bin/../lib/gcc/arm-eabi/4.5.1/../../../../arm-eabi/lib/thumb\libg.a(lib_a-putchar.o)
 .data          0x02087050        0x0 c:/devkitpro/devkitarm/bin/../lib/gcc/arm-eabi/4.5.1/../../../../arm-eabi/lib/thumb\libg.a(lib_a-puts.o)
 .data          0x02087050        0x0 c:/devkitpro/devkitarm/bin/../lib/gcc/arm-eabi/4.5.1/../../../../arm-eabi/lib/thumb\libg.a(lib_a-qsort.o)
 .data          0x02087050        0x0 c:/devkitpro/devkitarm/bin/../lib/gcc/arm-eabi/4.5.1/../../../../arm-eabi/lib/thumb\libg.a(lib_a-realloc.o)
 .data          0x02087050        0x0 c:/devkitpro/devkitarm/bin/../lib/gcc/arm-eabi/4.5.1/../../../../arm-eabi/lib/thumb\libg.a(lib_a-reallocr.o)
 .data          0x02087050        0x0 c:/devkitpro/devkitarm/bin/../lib/gcc/arm-eabi/4.5.1/../../../../arm-eabi/lib/thumb\libg.a(lib_a-refill.o)
 .data          0x02087050        0x0 c:/devkitpro/devkitarm/bin/../lib/gcc/arm-eabi/4.5.1/../../../../arm-eabi/lib/thumb\libg.a(lib_a-setbuf.o)
 .data          0x02087050        0x0 c:/devkitpro/devkitarm/bin/../lib/gcc/arm-eabi/4.5.1/../../../../arm-eabi/lib/thumb\libg.a(lib_a-setvbuf.o)
 .data          0x02087050        0x0 c:/devkitpro/devkitarm/bin/../lib/gcc/arm-eabi/4.5.1/../../../../arm-eabi/lib/thumb\libg.a(lib_a-signal.o)
 .data          0x02087050        0x0 c:/devkitpro/devkitarm/bin/../lib/gcc/arm-eabi/4.5.1/../../../../arm-eabi/lib/thumb\libg.a(lib_a-siscanf.o)
 .data          0x02087050        0x0 c:/devkitpro/devkitarm/bin/../lib/gcc/arm-eabi/4.5.1/../../../../arm-eabi/lib/thumb\libg.a(lib_a-sprintf.o)
 .data          0x02087050        0x0 c:/devkitpro/devkitarm/bin/../lib/gcc/arm-eabi/4.5.1/../../../../arm-eabi/lib/thumb\libg.a(lib_a-sscanf.o)
 .data          0x02087050        0x0 c:/devkitpro/devkitarm/bin/../lib/gcc/arm-eabi/4.5.1/../../../../arm-eabi/lib/thumb\libg.a(lib_a-stdio.o)
 .data          0x02087050        0x0 c:/devkitpro/devkitarm/bin/../lib/gcc/arm-eabi/4.5.1/../../../../arm-eabi/lib/thumb\libg.a(lib_a-strcasecmp.o)
 .data          0x02087050        0x0 c:/devkitpro/devkitarm/bin/../lib/gcc/arm-eabi/4.5.1/../../../../arm-eabi/lib/thumb\libg.a(lib_a-strcat.o)
 .data          0x02087050        0x0 c:/devkitpro/devkitarm/bin/../lib/gcc/arm-eabi/4.5.1/../../../../arm-eabi/lib/thumb\libg.a(lib_a-strchr.o)
 .data          0x02087050        0x0 c:/devkitpro/devkitarm/bin/../lib/gcc/arm-eabi/4.5.1/../../../../arm-eabi/lib/thumb\libg.a(lib_a-strcmp.o)
 .data          0x02087050        0x0 c:/devkitpro/devkitarm/bin/../lib/gcc/arm-eabi/4.5.1/../../../../arm-eabi/lib/thumb\libg.a(lib_a-strcpy.o)
 .data          0x02087050        0x0 c:/devkitpro/devkitarm/bin/../lib/gcc/arm-eabi/4.5.1/../../../../arm-eabi/lib/thumb\libg.a(lib_a-strlcpy.o)
 .data          0x02087050        0x0 c:/devkitpro/devkitarm/bin/../lib/gcc/arm-eabi/4.5.1/../../../../arm-eabi/lib/thumb\libg.a(lib_a-strlen.o)
 .data          0x02087050        0x0 c:/devkitpro/devkitarm/bin/../lib/gcc/arm-eabi/4.5.1/../../../../arm-eabi/lib/thumb\libg.a(lib_a-strncasecmp.o)
 .data          0x02087050        0x0 c:/devkitpro/devkitarm/bin/../lib/gcc/arm-eabi/4.5.1/../../../../arm-eabi/lib/thumb\libg.a(lib_a-strncmp.o)
 .data          0x02087050        0x0 c:/devkitpro/devkitarm/bin/../lib/gcc/arm-eabi/4.5.1/../../../../arm-eabi/lib/thumb\libg.a(lib_a-strncpy.o)
 .data          0x02087050        0x0 c:/devkitpro/devkitarm/bin/../lib/gcc/arm-eabi/4.5.1/../../../../arm-eabi/lib/thumb\libg.a(lib_a-strnlen.o)
 .data          0x02087050        0x0 c:/devkitpro/devkitarm/bin/../lib/gcc/arm-eabi/4.5.1/../../../../arm-eabi/lib/thumb\libg.a(lib_a-strpbrk.o)
 .data          0x02087050        0x0 c:/devkitpro/devkitarm/bin/../lib/gcc/arm-eabi/4.5.1/../../../../arm-eabi/lib/thumb\libg.a(lib_a-strrchr.o)
 .data          0x02087050        0x0 c:/devkitpro/devkitarm/bin/../lib/gcc/arm-eabi/4.5.1/../../../../arm-eabi/lib/thumb\libg.a(lib_a-strtol.o)
 .data          0x02087050        0x0 c:/devkitpro/devkitarm/bin/../lib/gcc/arm-eabi/4.5.1/../../../../arm-eabi/lib/thumb\libg.a(lib_a-strupr.o)
 .data          0x02087050        0x0 c:/devkitpro/devkitarm/bin/../lib/gcc/arm-eabi/4.5.1/../../../../arm-eabi/lib/thumb\libg.a(lib_a-svfiscanf.o)
 .data          0x02087050        0x0 c:/devkitpro/devkitarm/bin/../lib/gcc/arm-eabi/4.5.1/../../../../arm-eabi/lib/thumb\libg.a(lib_a-svfprintf.o)
 .data          0x02087050        0x0 c:/devkitpro/devkitarm/bin/../lib/gcc/arm-eabi/4.5.1/../../../../arm-eabi/lib/thumb\libg.a(lib_a-svfscanf.o)
 .data          0x02087050        0x0 c:/devkitpro/devkitarm/bin/../lib/gcc/arm-eabi/4.5.1/../../../../arm-eabi/lib/thumb\libg.a(lib_a-sysclose.o)
 .data          0x02087050        0x0 c:/devkitpro/devkitarm/bin/../lib/gcc/arm-eabi/4.5.1/../../../../arm-eabi/lib/thumb\libg.a(lib_a-sysfstat.o)
 .data          0x02087050        0x0 c:/devkitpro/devkitarm/bin/../lib/gcc/arm-eabi/4.5.1/../../../../arm-eabi/lib/thumb\libg.a(lib_a-syslseek.o)
 .data          0x02087050        0x0 c:/devkitpro/devkitarm/bin/../lib/gcc/arm-eabi/4.5.1/../../../../arm-eabi/lib/thumb\libg.a(lib_a-sysopen.o)
 .data          0x02087050        0x0 c:/devkitpro/devkitarm/bin/../lib/gcc/arm-eabi/4.5.1/../../../../arm-eabi/lib/thumb\libg.a(lib_a-sysread.o)
 .data          0x02087050        0x0 c:/devkitpro/devkitarm/bin/../lib/gcc/arm-eabi/4.5.1/../../../../arm-eabi/lib/thumb\libg.a(lib_a-sysstat.o)
 .data          0x02087050        0x0 c:/devkitpro/devkitarm/bin/../lib/gcc/arm-eabi/4.5.1/../../../../arm-eabi/lib/thumb\libg.a(lib_a-syswrite.o)
 .data          0x02087050        0x0 c:/devkitpro/devkitarm/bin/../lib/gcc/arm-eabi/4.5.1/../../../../arm-eabi/lib/thumb\libg.a(lib_a-time.o)
 .data          0x02087050        0x0 c:/devkitpro/devkitarm/bin/../lib/gcc/arm-eabi/4.5.1/../../../../arm-eabi/lib/thumb\libg.a(lib_a-towlower.o)
 .data          0x02087050        0x0 c:/devkitpro/devkitarm/bin/../lib/gcc/arm-eabi/4.5.1/../../../../arm-eabi/lib/thumb\libg.a(lib_a-towupper.o)
 .data          0x02087050        0x0 c:/devkitpro/devkitarm/bin/../lib/gcc/arm-eabi/4.5.1/../../../../arm-eabi/lib/thumb\libg.a(lib_a-tzlock.o)
 .data          0x02087050        0x8 c:/devkitpro/devkitarm/bin/../lib/gcc/arm-eabi/4.5.1/../../../../arm-eabi/lib/thumb\libg.a(lib_a-tzvars.o)
                0x02087050                _tzname
 .data          0x02087058        0x0 c:/devkitpro/devkitarm/bin/../lib/gcc/arm-eabi/4.5.1/../../../../arm-eabi/lib/thumb\libg.a(lib_a-ungetc.o)
 .data          0x02087058        0x0 c:/devkitpro/devkitarm/bin/../lib/gcc/arm-eabi/4.5.1/../../../../arm-eabi/lib/thumb\libg.a(lib_a-vfiprintf.o)
 .data          0x02087058        0x0 c:/devkitpro/devkitarm/bin/../lib/gcc/arm-eabi/4.5.1/../../../../arm-eabi/lib/thumb\libg.a(lib_a-vfprintf.o)
 .data          0x02087058        0x0 c:/devkitpro/devkitarm/bin/../lib/gcc/arm-eabi/4.5.1/../../../../arm-eabi/lib/thumb\libg.a(lib_a-vfscanf.o)
 .data          0x02087058        0x0 c:/devkitpro/devkitarm/bin/../lib/gcc/arm-eabi/4.5.1/../../../../arm-eabi/lib/thumb\libg.a(lib_a-vprintf.o)
 .data          0x02087058        0x0 c:/devkitpro/devkitarm/bin/../lib/gcc/arm-eabi/4.5.1/../../../../arm-eabi/lib/thumb\libg.a(lib_a-wbuf.o)
 .data          0x02087058        0x0 c:/devkitpro/devkitarm/bin/../lib/gcc/arm-eabi/4.5.1/../../../../arm-eabi/lib/thumb\libg.a(lib_a-wcrtomb.o)
 .data          0x02087058        0x0 c:/devkitpro/devkitarm/bin/../lib/gcc/arm-eabi/4.5.1/../../../../arm-eabi/lib/thumb\libg.a(lib_a-wcsrtombs.o)
 .data          0x02087058        0x0 c:/devkitpro/devkitarm/bin/../lib/gcc/arm-eabi/4.5.1/../../../../arm-eabi/lib/thumb\libg.a(lib_a-wctob.o)
 .data          0x02087058        0x4 c:/devkitpro/devkitarm/bin/../lib/gcc/arm-eabi/4.5.1/../../../../arm-eabi/lib/thumb\libg.a(lib_a-wctomb_r.o)
                0x02087058                __wctomb
 .data          0x0208705c        0x0 c:/devkitpro/devkitarm/bin/../lib/gcc/arm-eabi/4.5.1/../../../../arm-eabi/lib/thumb\libg.a(lib_a-wsetup.o)
 .data          0x0208705c        0x0 c:/devkitpro/devkitarm/bin/../lib/gcc/arm-eabi/4.5.1/../../../../arm-eabi/lib/thumb\libg.a(lib_a-__call_atexit.o)
 .data          0x0208705c        0x0 c:/devkitpro/devkitarm/bin/../lib/gcc/arm-eabi/4.5.1/../../../../arm-eabi/lib/thumb\libg.a(lib_a-div.o)
 .data          0x0208705c        0x0 c:/devkitpro/devkitarm/bin/../lib/gcc/arm-eabi/4.5.1/../../../../arm-eabi/lib/thumb\libg.a(lib_a-dtoa.o)
 .data          0x0208705c        0x0 c:/devkitpro/devkitarm/bin/../lib/gcc/arm-eabi/4.5.1/../../../../arm-eabi/lib/thumb\libg.a(lib_a-flags.o)
 .data          0x0208705c        0x0 c:/devkitpro/devkitarm/bin/../lib/gcc/arm-eabi/4.5.1/../../../../arm-eabi/lib/thumb\libg.a(lib_a-fputwc.o)
 .data          0x0208705c        0x0 c:/devkitpro/devkitarm/bin/../lib/gcc/arm-eabi/4.5.1/../../../../arm-eabi/lib/thumb\libg.a(lib_a-fvwrite.o)
 .data          0x0208705c        0x0 c:/devkitpro/devkitarm/bin/../lib/gcc/arm-eabi/4.5.1/../../../../arm-eabi/lib/thumb\libg.a(lib_a-getenv_r.o)
 .data          0x0208705c       0x40 c:/devkitpro/devkitarm/bin/../lib/gcc/arm-eabi/4.5.1/../../../../arm-eabi/lib/thumb\libg.a(lib_a-gettzinfo.o)
 .data          0x0208709c        0x0 c:/devkitpro/devkitarm/bin/../lib/gcc/arm-eabi/4.5.1/../../../../arm-eabi/lib/thumb\libg.a(lib_a-iswspace.o)
 .data          0x0208709c        0x0 c:/devkitpro/devkitarm/bin/../lib/gcc/arm-eabi/4.5.1/../../../../arm-eabi/lib/thumb\libg.a(lib_a-jp2uc.o)
 .data          0x0208709c        0x0 c:/devkitpro/devkitarm/bin/../lib/gcc/arm-eabi/4.5.1/../../../../arm-eabi/lib/thumb\libg.a(lib_a-mbsnrtowcs.o)
 .data          0x0208709c        0x0 c:/devkitpro/devkitarm/bin/../lib/gcc/arm-eabi/4.5.1/../../../../arm-eabi/lib/thumb\libg.a(lib_a-mprec.o)
 .data          0x0208709c        0x0 c:/devkitpro/devkitarm/bin/../lib/gcc/arm-eabi/4.5.1/../../../../arm-eabi/lib/thumb\libg.a(lib_a-sccl.o)
 .data          0x0208709c        0x0 c:/devkitpro/devkitarm/bin/../lib/gcc/arm-eabi/4.5.1/../../../../arm-eabi/lib/thumb\libg.a(lib_a-sf_nan.o)
 .data          0x0208709c       0x28 c:/devkitpro/devkitarm/bin/../lib/gcc/arm-eabi/4.5.1/../../../../arm-eabi/lib/thumb\libg.a(lib_a-strtod.o)
 .data          0x020870c4        0x0 c:/devkitpro/devkitarm/bin/../lib/gcc/arm-eabi/4.5.1/../../../../arm-eabi/lib/thumb\libg.a(lib_a-strtoll_r.o)
 .data          0x020870c4        0x0 c:/devkitpro/devkitarm/bin/../lib/gcc/arm-eabi/4.5.1/../../../../arm-eabi/lib/thumb\libg.a(lib_a-strtoul.o)
 .data          0x020870c4        0x0 c:/devkitpro/devkitarm/bin/../lib/gcc/arm-eabi/4.5.1/../../../../arm-eabi/lib/thumb\libg.a(lib_a-strtoull_r.o)
 .data          0x020870c4        0x0 c:/devkitpro/devkitarm/bin/../lib/gcc/arm-eabi/4.5.1/../../../../arm-eabi/lib/thumb\libg.a(lib_a-svfiprintf.o)
 .data          0x020870c4        0x0 c:/devkitpro/devkitarm/bin/../lib/gcc/arm-eabi/4.5.1/../../../../arm-eabi/lib/thumb\libg.a(lib_a-wcsnrtombs.o)
 .data          0x020870c4        0x4 c:/devkitpro/devkitarm/bin/../lib/gcc/arm-eabi/4.5.1/../../../../arm-eabi/lib/thumb\libg.a(lib_a-environ.o)
                0x020870c4                environ
 .data          0x020870c8        0x0 c:/devkitpro/devkitarm/bin/../lib/gcc/arm-eabi/4.5.1/../../../../arm-eabi/lib/thumb\libg.a(lib_a-envlock.o)
 .data          0x020870c8        0x0 c:/devkitpro/devkitarm/bin/../lib/gcc/arm-eabi/4.5.1/../../../../arm-eabi/lib/thumb\libg.a(lib_a-gdtoa-gethex.o)
 .data          0x020870c8        0x0 c:/devkitpro/devkitarm/bin/../lib/gcc/arm-eabi/4.5.1/../../../../arm-eabi/lib/thumb\libg.a(lib_a-gdtoa-hexnan.o)
 .data          0x020870c8       0x44 c:/devkitpro/devkitarm/bin/../lib/gcc/arm-eabi/4.5.1/../../../../arm-eabi/lib/thumb\libsysbase.a(iosupport.o)
                0x020870cc                devoptab_list
 .data          0x0208710c        0x0 c:/devkitpro/devkitarm/bin/../lib/gcc/arm-eabi/4.5.1/../../../../arm-eabi/lib/thumb\libsysbase.a(close.o)
 .data          0x0208710c        0x0 c:/devkitpro/devkitarm/bin/../lib/gcc/arm-eabi/4.5.1/../../../../arm-eabi/lib/thumb\libsysbase.a(fstat.o)
 .data          0x0208710c        0x0 c:/devkitpro/devkitarm/bin/../lib/gcc/arm-eabi/4.5.1/../../../../arm-eabi/lib/thumb\libsysbase.a(getpid.o)
 .data          0x0208710c        0x0 c:/devkitpro/devkitarm/bin/../lib/gcc/arm-eabi/4.5.1/../../../../arm-eabi/lib/thumb\libsysbase.a(isatty.o)
 .data          0x0208710c        0x0 c:/devkitpro/devkitarm/bin/../lib/gcc/arm-eabi/4.5.1/../../../../arm-eabi/lib/thumb\libsysbase.a(kill.o)
 .data          0x0208710c        0x0 c:/devkitpro/devkitarm/bin/../lib/gcc/arm-eabi/4.5.1/../../../../arm-eabi/lib/thumb\libsysbase.a(lseek.o)
 .data          0x0208710c        0x0 c:/devkitpro/devkitarm/bin/../lib/gcc/arm-eabi/4.5.1/../../../../arm-eabi/lib/thumb\libsysbase.a(open.o)
 .data          0x0208710c        0x0 c:/devkitpro/devkitarm/bin/../lib/gcc/arm-eabi/4.5.1/../../../../arm-eabi/lib/thumb\libsysbase.a(read.o)
 .data          0x0208710c        0x0 c:/devkitpro/devkitarm/bin/../lib/gcc/arm-eabi/4.5.1/../../../../arm-eabi/lib/thumb\libsysbase.a(sbrk.o)
 .data          0x0208710c        0x0 c:/devkitpro/devkitarm/bin/../lib/gcc/arm-eabi/4.5.1/../../../../arm-eabi/lib/thumb\libsysbase.a(stat.o)
 .data          0x0208710c        0x0 c:/devkitpro/devkitarm/bin/../lib/gcc/arm-eabi/4.5.1/../../../../arm-eabi/lib/thumb\libsysbase.a(times.o)
 .data          0x0208710c        0x0 c:/devkitpro/devkitarm/bin/../lib/gcc/arm-eabi/4.5.1/../../../../arm-eabi/lib/thumb\libsysbase.a(write.o)
 .data          0x0208710c        0x0 c:/devkitpro/devkitarm/bin/../lib/gcc/arm-eabi/4.5.1/../../../../arm-eabi/lib/thumb\libsysbase.a(_exit.o)
 .data          0x0208710c        0x0 c:/devkitpro/devkitarm/bin/../lib/gcc/arm-eabi/4.5.1/../../../../arm-eabi/lib/thumb\libsysbase.a(malloc_vars.o)
 .data          0x0208710c      0x400 c:/devkitpro/devkitarm/bin/../lib/gcc/arm-eabi/4.5.1/../../../../arm-eabi/lib/thumb\libsysbase.a(chdir.o)
 .data          0x0208750c        0x0 c:/devkitpro/devkitarm/bin/../lib/gcc/arm-eabi/4.5.1/../../../../arm-eabi/lib/thumb\libsysbase.a(build_argv.o)
 .data          0x0208750c        0x0 c:/devkitpro/devkitarm/bin/../lib/gcc/arm-eabi/4.5.1/../../../../arm-eabi/lib/thumb\libsysbase.a(syscall_support.o)
 .data          0x0208750c        0x0 c:/devkitpro/devkitarm/bin/../lib/gcc/arm-eabi/4.5.1/../../../../arm-eabi/lib/thumb\libsysbase.a(handle_manager.o)
 .data          0x0208750c        0x0 c:/devkitpro/devkitarm/bin/../lib/gcc/arm-eabi/4.5.1/thumb\libgcc.a(_arm_fixunsdfsi.o)
 .data          0x0208750c        0x0 c:/devkitpro/devkitarm/bin/../lib/gcc/arm-eabi/4.5.1/thumb\libgcc.a(_aeabi_uldivmod.o)
 .data          0x0208750c        0x0 c:/devkitpro/devkitarm/bin/../lib/gcc/arm-eabi/4.5.1/thumb/crtend.o
 .data          0x0208750c        0x0 c:/devkitpro/devkitarm/bin/../lib/gcc/arm-eabi/4.5.1/thumb/crtn.o
 *(.data.*)
 *(.gnu.linkonce.d*)
                0x0208750c                . = ALIGN (0x4)
                0x0208750c                __data_end = ABSOLUTE (.)
                0x0208750c                __dtcm_lma = .
                0x0208750c                __bss_vma = .

.dtcm           0x0b000000        0x0 load address 0x0208750c
 *(.dtcm)
 *(.dtcm.*)
                0x0b000000                . = ALIGN (0x4)
                0x0b000000                __dtcm_end = ABSOLUTE (.)
                0x0208750c                __itcm_lma = (__dtcm_lma + SIZEOF (.dtcm))

.itcm           0x01000100      0x194 load address 0x0208750c
 *(.itcm)
 .itcm          0x01000100       0xc8 c:/devkitPro/libnds/lib\libnds9.a(interrupts.o)
                0x01000100                irqTable
 .itcm          0x010001c8       0xcc c:/devkitPro/libnds/lib\libnds9.a(interruptDispatcher.o)
                0x010001c8                IntrMain
 *itcm.*(.text)
                0x01000294                . = ALIGN (0x4)
                0x01000294                __itcm_end = ABSOLUTE (.)
                0x020876a0                __vectors_lma = (__itcm_lma + SIZEOF (.itcm))

.vectors        0x01000000        0x0 load address 0x020876a0
 *(.vectors)
 *vectors.*(.text)
                0x01000000                . = ALIGN (0x4)
                0x01000000                __vectors_end = ABSOLUTE (.)

.sbss           0x0b000000        0x0
                0x0b000000                __sbss_start = ABSOLUTE (.)
                0x0b000000                __sbss_start__ = ABSOLUTE (.)
 *(.sbss)
                0x0b000000                . = ALIGN (0x4)
                0x0b000000                __sbss_end = ABSOLUTE (.)

.bss            0x0208750c    0x2d888
                0x0208750c                __bss_start = ABSOLUTE (.)
                0x0208750c                __bss_start__ = ABSOLUTE (.)
 *(.dynbss)
 *(.gnu.linkonce.b*)
 *(.bss*)
 .bss           0x0208750c        0x0 c:/devkitpro/devkitarm/bin/../lib/gcc/arm-eabi/4.5.1/../../../../arm-eabi/lib/thumb/ds_arm9_crt0.o
 .bss           0x0208750c        0x0 c:/devkitpro/devkitarm/bin/../lib/gcc/arm-eabi/4.5.1/thumb/crti.o
 .bss           0x0208750c       0x1c c:/devkitpro/devkitarm/bin/../lib/gcc/arm-eabi/4.5.1/thumb/crtbegin.o
 .bss           0x02087528       0x24 ds_render.o
                0x02087528                ds_anti_alias_id
                0x02087530                yaw
                0x0208753c                viewwindowx
                0x02087540                viewwindowy
                0x02087544                num_gl_walls
                0x02087548                num_gl_sprites
 .bss           0x0208754c        0x4 glMain.o
                0x0208754c                r_framecount
 .bss           0x02087550        0xc template.o
                0x02087550                ds_bg_sub
                0x02087554                ds_bg_main
                0x02087558                ds_bg_text
 .bss           0x0208755c       0xe0 AM_MAP.o
                0x02087564                automapactive
 .bss           0x0208763c        0x4 CT_CHAT.o
 .bss           0x02087640       0x10 D_MAIN.o
                0x02087640                shareware
                0x02087644                ExtendedWAD
                0x02087648                eventhead
                0x0208764c                eventtail
 .bss           0x02087650        0x4 D_NET.o
 .bss           0x02087654        0xc F_FINALE.o
 .bss           0x02087660        0x0 G_GAME.o
 .bss           0x02087660        0x0 INFO.o
 .bss           0x02087660       0xe8 IN_LUDE.o
 .bss           0x02087748       0x24 I_IBM.o
                0x02087748                DisplayTicker
                0x0208774c                nextPBlock
                0x02087750                g_lastTouch
                0x0208775c                g_currentTouch
 .bss           0x0208776c        0x0 I_SOUND.o
 .bss           0x0208776c       0xd4 MN_MENU.o
 .bss           0x02087840        0x8 M_MISC.o
                0x02087840                rndindex
                0x02087844                prndindex
 .bss           0x02087848        0x0 P_CEILNG.o
 .bss           0x02087848        0x0 P_DOORS.o
 .bss           0x02087848       0x64 P_ENEMY.o
 .bss           0x020878ac        0x0 P_FLOOR.o
 .bss           0x020878ac        0x0 P_INTER.o
 .bss           0x020878ac        0x0 P_LIGHTS.o
 .bss           0x020878ac        0x0 P_MAP.o
 .bss           0x020878ac        0x0 P_MAPUTL.o
 .bss           0x020878ac        0x0 P_MOBJ.o
 .bss           0x020878ac        0x0 P_PLATS.o
 .bss           0x020878ac       0x44 P_PSPR.o
 .bss           0x020878f0        0x0 P_SETUP.o
 .bss           0x020878f0        0x0 P_SIGHT.o
 .bss           0x020878f0        0x0 P_SPEC.o
 .bss           0x020878f0        0x0 P_SWITCH.o
 .bss           0x020878f0        0x0 P_TELEPT.o
 .bss           0x020878f0        0x0 P_TICK.o
 .bss           0x020878f0        0x0 P_USER.o
 .bss           0x020878f0        0x0 R_DATA.o
 .bss           0x020878f0        0x0 R_MAIN.o
 .bss           0x020878f0        0x0 R_THINGS.o
 .bss           0x020878f0      0x120 SB_BAR.o
                0x02087a04                playerkeys
 .bss           0x02087a10        0x0 SOUNDS.o
 .bss           0x02087a10        0x0 TABLES.o
 .bss           0x02087a10        0x0 V_VIDEO.o
 .bss           0x02087a10        0x0 W_WAD.o
 .bss           0x02087a10        0x0 Z_ZONE.o
 .bss           0x02087a10       0x40 ds_textures.o
                0x02087a10                ds_blank_texture
 .bss           0x02087a50       0x14 geometry.o
                0x02087a50                num_lines
                0x02087a54                floor_count
                0x02087a58                sub_count
                0x02087a5c                draw_gen_floors
                0x02087a60                draw_gen_sub
 .bss           0x02087a64        0x0 polylib.o
 .bss           0x02087a64      0x154 soundst.o
 .bss           0x02087bb8        0x0 hexenarm.o
 .bss           0x02087bb8        0x0 c:/devkitPro/libnds/lib\libfat.a(libfat.o)
 *fill*         0x02087bb8        0x8 00
 .bss           0x02087bc0      0x200 c:/devkitPro/libnds/lib\libfat.a(partition.o)
 .bss           0x02087dc0        0x4 c:/devkitPro/libnds/lib\libfat.a(cache.o)
 .bss           0x02087dc4        0x0 c:/devkitPro/libnds/lib\libfat.a(directory.o)
 .bss           0x02087dc4        0x0 c:/devkitPro/libnds/lib\libfat.a(disc.o)
 .bss           0x02087dc4        0x0 c:/devkitPro/libnds/lib\libfat.a(fatdir.o)
 .bss           0x02087dc4        0x0 c:/devkitPro/libnds/lib\libfat.a(fatfile.o)
 .bss           0x02087dc4        0x0 c:/devkitPro/libnds/lib\libfat.a(file_allocation_table.o)
 .bss           0x02087dc4        0x0 c:/devkitPro/libnds/lib\libfat.a(filetime.o)
 .bss           0x02087dc4        0x0 c:/devkitPro/libnds/lib\libfat.a(lock.o)
 .bss           0x02087dc4        0x0 c:/devkitPro/libnds/lib\libnds9.a(background.o)
 .bss           0x02087dc4        0x0 c:/devkitPro/libnds/lib\libnds9.a(console.o)
 .bss           0x02087dc4        0x0 c:/devkitPro/libnds/lib\libnds9.a(gurumeditation.o)
 .bss           0x02087dc4        0x6 c:/devkitPro/libnds/lib\libnds9.a(keys.o)
 .bss           0x02087dca        0x0 c:/devkitPro/libnds/lib\libnds9.a(sassert.o)
 *fill*         0x02087dca        0x2 00
 .bss           0x02087dcc        0x4 c:/devkitPro/libnds/lib\libnds9.a(sound.o)
                0x02087dcc                micCallback
 .bss           0x02087dd0        0x0 c:/devkitPro/libnds/lib\libnds9.a(touch.o)
 .bss           0x02087dd0        0x0 c:/devkitPro/libnds/lib\libnds9.a(trig.o)
 .bss           0x02087dd0        0x0 c:/devkitPro/libnds/lib\libnds9.a(video.o)
 .bss           0x02087dd0        0x8 c:/devkitPro/libnds/lib\libnds9.a(videoGL.o)
 .bss           0x02087dd8        0x0 c:/devkitPro/libnds/lib\libnds9.a(dldi.o)
 .bss           0x02087dd8        0x0 c:/devkitPro/libnds/lib\libnds9.a(dsi_sd.o)
 .bss           0x02087dd8        0x0 c:/devkitPro/libnds/lib\libnds9.a(initSystem.o)
 .bss           0x02087dd8        0x8 c:/devkitPro/libnds/lib\libnds9.a(fifosystem.o)
                0x02087ddc                processing
 .bss           0x02087de0        0x0 c:/devkitPro/libnds/lib\libnds9.a(interrupts.o)
 .bss           0x02087de0        0x0 c:/devkitPro/libnds/lib\libnds9.a(libnds_exit.o)
 .bss           0x02087de0        0x0 c:/devkitPro/libnds/lib\libnds9.a(dcache.o)
 .bss           0x02087de0        0x0 c:/devkitPro/libnds/lib\libnds9.a(exceptionHandler.o)
 .bss           0x02087de0        0x0 c:/devkitPro/libnds/lib\libnds9.a(dldi_stub.o)
 .bss           0x02087de0        0x0 c:/devkitPro/libnds/lib\libnds9.a(mpu_setup.o)
 .bss           0x02087de0        0x0 c:/devkitPro/libnds/lib\libnds9.a(biosCalls.o)
 .bss           0x02087de0        0x0 c:/devkitPro/libnds/lib\libnds9.a(debugprint.o)
 .bss           0x02087de0        0x0 c:/devkitPro/libnds/lib\libnds9.a(interruptDispatcher.o)
 .bss           0x02087de0        0x0 c:/devkitPro/libnds/lib\libnds9.a(swiSoftReset.o)
 .bss           0x02087de0        0x0 c:/devkitPro/libnds/lib\libnds9.a(default_font.bin.o)
 .bss           0x02087de0        0x0 c:/devkitPro/libnds/lib\libnds9.a(dynamicArray.o)
 .bss           0x02087de0        0x0 c:/devkitPro/libnds/lib\libnds9.a(exceptions.o)
 .bss           0x02087de0        0x0 c:/devkitPro/libnds/lib\libnds9.a(system.o)
 .bss           0x02087de0        0x0 c:/devkitpro/devkitarm/bin/../lib/gcc/arm-eabi/4.5.1/../../../../arm-eabi/lib/thumb\libm.a(lib_a-s_ceil.o)
 .bss           0x02087de0        0x0 c:/devkitpro/devkitarm/bin/../lib/gcc/arm-eabi/4.5.1/../../../../arm-eabi/lib/thumb\libm.a(lib_a-s_cos.o)
 .bss           0x02087de0        0x0 c:/devkitpro/devkitarm/bin/../lib/gcc/arm-eabi/4.5.1/../../../../arm-eabi/lib/thumb\libm.a(lib_a-s_floor.o)
 .bss           0x02087de0        0x0 c:/devkitpro/devkitarm/bin/../lib/gcc/arm-eabi/4.5.1/../../../../arm-eabi/lib/thumb\libm.a(lib_a-s_sin.o)
 .bss           0x02087de0        0x0 c:/devkitpro/devkitarm/bin/../lib/gcc/arm-eabi/4.5.1/../../../../arm-eabi/lib/thumb\libm.a(lib_a-s_tan.o)
 .bss           0x02087de0        0x0 c:/devkitpro/devkitarm/bin/../lib/gcc/arm-eabi/4.5.1/../../../../arm-eabi/lib/thumb\libm.a(lib_a-w_sqrt.o)
 .bss           0x02087de0        0x0 c:/devkitpro/devkitarm/bin/../lib/gcc/arm-eabi/4.5.1/../../../../arm-eabi/lib/thumb\libm.a(lib_a-e_rem_pio2.o)
 .bss           0x02087de0        0x0 c:/devkitpro/devkitarm/bin/../lib/gcc/arm-eabi/4.5.1/../../../../arm-eabi/lib/thumb\libm.a(lib_a-e_sqrt.o)
 .bss           0x02087de0        0x0 c:/devkitpro/devkitarm/bin/../lib/gcc/arm-eabi/4.5.1/../../../../arm-eabi/lib/thumb\libm.a(lib_a-k_cos.o)
 .bss           0x02087de0        0x0 c:/devkitpro/devkitarm/bin/../lib/gcc/arm-eabi/4.5.1/../../../../arm-eabi/lib/thumb\libm.a(lib_a-k_rem_pio2.o)
 .bss           0x02087de0        0x0 c:/devkitpro/devkitarm/bin/../lib/gcc/arm-eabi/4.5.1/../../../../arm-eabi/lib/thumb\libm.a(lib_a-k_sin.o)
 .bss           0x02087de0        0x0 c:/devkitpro/devkitarm/bin/../lib/gcc/arm-eabi/4.5.1/../../../../arm-eabi/lib/thumb\libm.a(lib_a-k_tan.o)
 .bss           0x02087de0        0x0 c:/devkitpro/devkitarm/bin/../lib/gcc/arm-eabi/4.5.1/../../../../arm-eabi/lib/thumb\libm.a(lib_a-s_fabs.o)
 .bss           0x02087de0        0x0 c:/devkitpro/devkitarm/bin/../lib/gcc/arm-eabi/4.5.1/../../../../arm-eabi/lib/thumb\libm.a(lib_a-s_fpclassify.o)
 .bss           0x02087de0        0x0 c:/devkitpro/devkitarm/bin/../lib/gcc/arm-eabi/4.5.1/../../../../arm-eabi/lib/thumb\libm.a(lib_a-s_lib_ver.o)
 .bss           0x02087de0        0x0 c:/devkitpro/devkitarm/bin/../lib/gcc/arm-eabi/4.5.1/../../../../arm-eabi/lib/thumb\libm.a(lib_a-s_matherr.o)
 .bss           0x02087de0        0x0 c:/devkitpro/devkitarm/bin/../lib/gcc/arm-eabi/4.5.1/../../../../arm-eabi/lib/thumb\libm.a(lib_a-s_scalbn.o)
 .bss           0x02087de0        0x0 c:/devkitpro/devkitarm/bin/../lib/gcc/arm-eabi/4.5.1/../../../../arm-eabi/lib/thumb\libm.a(lib_a-s_copysign.o)
 .bss           0x02087de0        0x0 c:/devkitpro/devkitarm/bin/../lib/gcc/arm-eabi/4.5.1/thumb\libgcc.a(_udivsi3.o)
 .bss           0x02087de0        0x0 c:/devkitpro/devkitarm/bin/../lib/gcc/arm-eabi/4.5.1/thumb\libgcc.a(_divsi3.o)
 .bss           0x02087de0        0x0 c:/devkitpro/devkitarm/bin/../lib/gcc/arm-eabi/4.5.1/thumb\libgcc.a(_dvmd_tls.o)
 .bss           0x02087de0        0x0 c:/devkitpro/devkitarm/bin/../lib/gcc/arm-eabi/4.5.1/thumb\libgcc.a(_arm_addsubdf3.o)
 .bss           0x02087de0        0x0 c:/devkitpro/devkitarm/bin/../lib/gcc/arm-eabi/4.5.1/thumb\libgcc.a(_arm_muldivdf3.o)
 .bss           0x02087de0        0x0 c:/devkitpro/devkitarm/bin/../lib/gcc/arm-eabi/4.5.1/thumb\libgcc.a(_arm_cmpdf2.o)
 .bss           0x02087de0        0x0 c:/devkitpro/devkitarm/bin/../lib/gcc/arm-eabi/4.5.1/thumb\libgcc.a(_arm_fixdfsi.o)
 .bss           0x02087de0        0x0 c:/devkitpro/devkitarm/bin/../lib/gcc/arm-eabi/4.5.1/thumb\libgcc.a(_arm_truncdfsf2.o)
 .bss           0x02087de0        0x0 c:/devkitpro/devkitarm/bin/../lib/gcc/arm-eabi/4.5.1/thumb\libgcc.a(_arm_addsubsf3.o)
 .bss           0x02087de0        0x0 c:/devkitpro/devkitarm/bin/../lib/gcc/arm-eabi/4.5.1/thumb\libgcc.a(_arm_muldivsf3.o)
 .bss           0x02087de0        0x0 c:/devkitpro/devkitarm/bin/../lib/gcc/arm-eabi/4.5.1/thumb\libgcc.a(_arm_cmpsf2.o)
 .bss           0x02087de0        0x0 c:/devkitpro/devkitarm/bin/../lib/gcc/arm-eabi/4.5.1/thumb\libgcc.a(_arm_fixsfsi.o)
 .bss           0x02087de0        0x0 c:/devkitpro/devkitarm/bin/../lib/gcc/arm-eabi/4.5.1/thumb\libgcc.a(_arm_fixunssfsi.o)
 .bss           0x02087de0        0x0 c:/devkitpro/devkitarm/bin/../lib/gcc/arm-eabi/4.5.1/thumb\libgcc.a(_aeabi_ldivmod.o)
 .bss           0x02087de0        0x0 c:/devkitpro/devkitarm/bin/../lib/gcc/arm-eabi/4.5.1/thumb\libgcc.a(_muldi3.o)
 .bss           0x02087de0        0x0 c:/devkitpro/devkitarm/bin/../lib/gcc/arm-eabi/4.5.1/thumb\libgcc.a(bpabi.o)
 .bss           0x02087de0        0x0 c:/devkitpro/devkitarm/bin/../lib/gcc/arm-eabi/4.5.1/thumb\libgcc.a(unwind-arm.o)
 .bss           0x02087de0        0x0 c:/devkitpro/devkitarm/bin/../lib/gcc/arm-eabi/4.5.1/thumb\libgcc.a(libunwind.o)
 .bss           0x02087de0        0x0 c:/devkitpro/devkitarm/bin/../lib/gcc/arm-eabi/4.5.1/thumb\libgcc.a(pr-support.o)
 .bss           0x02087de0        0x0 c:/devkitpro/devkitarm/bin/../lib/gcc/arm-eabi/4.5.1/thumb\libgcc.a(_divdi3.o)
 .bss           0x02087de0        0x0 c:/devkitpro/devkitarm/bin/../lib/gcc/arm-eabi/4.5.1/thumb\libgcc.a(_udivdi3.o)
 .bss           0x02087de0        0x0 c:/devkitpro/devkitarm/bin/../lib/gcc/arm-eabi/4.5.1/thumb\libgcc.a(_clzsi2.o)
 .bss           0x02087de0        0x0 c:/devkitpro/devkitarm/bin/../lib/gcc/arm-eabi/4.5.1/../../../../arm-eabi/lib/thumb\libg.a(lib_a-abort.o)
 .bss           0x02087de0        0x0 c:/devkitpro/devkitarm/bin/../lib/gcc/arm-eabi/4.5.1/../../../../arm-eabi/lib/thumb\libg.a(lib_a-access.o)
 .bss           0x02087de0        0x0 c:/devkitpro/devkitarm/bin/../lib/gcc/arm-eabi/4.5.1/../../../../arm-eabi/lib/thumb\libg.a(lib_a-atoi.o)
 .bss           0x02087de0        0x0 c:/devkitpro/devkitarm/bin/../lib/gcc/arm-eabi/4.5.1/../../../../arm-eabi/lib/thumb\libg.a(lib_a-bsearch.o)
 .bss           0x02087de0        0x0 c:/devkitpro/devkitarm/bin/../lib/gcc/arm-eabi/4.5.1/../../../../arm-eabi/lib/thumb\libg.a(lib_a-calloc.o)
 .bss           0x02087de0        0x0 c:/devkitpro/devkitarm/bin/../lib/gcc/arm-eabi/4.5.1/../../../../arm-eabi/lib/thumb\libg.a(lib_a-callocr.o)
 .bss           0x02087de0        0x0 c:/devkitpro/devkitarm/bin/../lib/gcc/arm-eabi/4.5.1/../../../../arm-eabi/lib/thumb\libg.a(lib_a-ctype_.o)
 .bss           0x02087de0        0x0 c:/devkitpro/devkitarm/bin/../lib/gcc/arm-eabi/4.5.1/../../../../arm-eabi/lib/thumb\libg.a(lib_a-errno.o)
 .bss           0x02087de0        0x0 c:/devkitpro/devkitarm/bin/../lib/gcc/arm-eabi/4.5.1/../../../../arm-eabi/lib/thumb\libg.a(lib_a-exit.o)
 .bss           0x02087de0        0x0 c:/devkitpro/devkitarm/bin/../lib/gcc/arm-eabi/4.5.1/../../../../arm-eabi/lib/thumb\libg.a(lib_a-fclose.o)
 .bss           0x02087de0        0x0 c:/devkitpro/devkitarm/bin/../lib/gcc/arm-eabi/4.5.1/../../../../arm-eabi/lib/thumb\libg.a(lib_a-fflush.o)
 .bss           0x02087de0        0x0 c:/devkitpro/devkitarm/bin/../lib/gcc/arm-eabi/4.5.1/../../../../arm-eabi/lib/thumb\libg.a(lib_a-findfp.o)
 .bss           0x02087de0        0x0 c:/devkitpro/devkitarm/bin/../lib/gcc/arm-eabi/4.5.1/../../../../arm-eabi/lib/thumb\libg.a(lib_a-fopen.o)
 .bss           0x02087de0        0x0 c:/devkitpro/devkitarm/bin/../lib/gcc/arm-eabi/4.5.1/../../../../arm-eabi/lib/thumb\libg.a(lib_a-fprintf.o)
 .bss           0x02087de0        0x0 c:/devkitpro/devkitarm/bin/../lib/gcc/arm-eabi/4.5.1/../../../../arm-eabi/lib/thumb\libg.a(lib_a-fputc.o)
 .bss           0x02087de0        0x0 c:/devkitpro/devkitarm/bin/../lib/gcc/arm-eabi/4.5.1/../../../../arm-eabi/lib/thumb\libg.a(lib_a-fread.o)
 .bss           0x02087de0        0x0 c:/devkitpro/devkitarm/bin/../lib/gcc/arm-eabi/4.5.1/../../../../arm-eabi/lib/thumb\libg.a(lib_a-freer.o)
 .bss           0x02087de0        0x0 c:/devkitpro/devkitarm/bin/../lib/gcc/arm-eabi/4.5.1/../../../../arm-eabi/lib/thumb\libg.a(lib_a-fscanf.o)
 .bss           0x02087de0        0x0 c:/devkitpro/devkitarm/bin/../lib/gcc/arm-eabi/4.5.1/../../../../arm-eabi/lib/thumb\libg.a(lib_a-fseek.o)
 .bss           0x02087de0        0x0 c:/devkitpro/devkitarm/bin/../lib/gcc/arm-eabi/4.5.1/../../../../arm-eabi/lib/thumb\libg.a(lib_a-ftell.o)
 .bss           0x02087de0        0x0 c:/devkitpro/devkitarm/bin/../lib/gcc/arm-eabi/4.5.1/../../../../arm-eabi/lib/thumb\libg.a(lib_a-fwalk.o)
 .bss           0x02087de0        0x0 c:/devkitpro/devkitarm/bin/../lib/gcc/arm-eabi/4.5.1/../../../../arm-eabi/lib/thumb\libg.a(lib_a-fwrite.o)
 .bss           0x02087de0        0x0 c:/devkitpro/devkitarm/bin/../lib/gcc/arm-eabi/4.5.1/../../../../arm-eabi/lib/thumb\libg.a(lib_a-impure.o)
 .bss           0x02087de0        0x0 c:/devkitpro/devkitarm/bin/../lib/gcc/arm-eabi/4.5.1/../../../../arm-eabi/lib/thumb\libg.a(lib_a-init.o)
 .bss           0x02087de0        0x0 c:/devkitpro/devkitarm/bin/../lib/gcc/arm-eabi/4.5.1/../../../../arm-eabi/lib/thumb\libg.a(lib_a-iprintf.o)
 .bss           0x02087de0        0x0 c:/devkitpro/devkitarm/bin/../lib/gcc/arm-eabi/4.5.1/../../../../arm-eabi/lib/thumb\libg.a(lib_a-lcltime_r.o)
 .bss           0x02087de0      0x2b8 c:/devkitpro/devkitarm/bin/../lib/gcc/arm-eabi/4.5.1/../../../../arm-eabi/lib/thumb\libg.a(lib_a-locale.o)
                0x0208808c                __nlocale_changed
                0x02088090                __mlocale_changed
                0x02088094                _PathLocale
 .bss           0x02088098        0x0 c:/devkitpro/devkitarm/bin/../lib/gcc/arm-eabi/4.5.1/../../../../arm-eabi/lib/thumb\libg.a(lib_a-makebuf.o)
 .bss           0x02088098        0x0 c:/devkitpro/devkitarm/bin/../lib/gcc/arm-eabi/4.5.1/../../../../arm-eabi/lib/thumb\libg.a(lib_a-malloc.o)
 .bss           0x02088098       0x34 c:/devkitpro/devkitarm/bin/../lib/gcc/arm-eabi/4.5.1/../../../../arm-eabi/lib/thumb\libg.a(lib_a-mallocr.o)
                0x02088098                __malloc_top_pad
                0x0208809c                __malloc_current_mallinfo
                0x020880c4                __malloc_max_sbrked_mem
                0x020880c8                __malloc_max_total_mem
 .bss           0x020880cc        0x0 c:/devkitpro/devkitarm/bin/../lib/gcc/arm-eabi/4.5.1/../../../../arm-eabi/lib/thumb\libg.a(lib_a-mbrtowc.o)
 .bss           0x020880cc        0x0 c:/devkitpro/devkitarm/bin/../lib/gcc/arm-eabi/4.5.1/../../../../arm-eabi/lib/thumb\libg.a(lib_a-mbsrtowcs.o)
 .bss           0x020880cc        0x0 c:/devkitpro/devkitarm/bin/../lib/gcc/arm-eabi/4.5.1/../../../../arm-eabi/lib/thumb\libg.a(lib_a-mbtowc_r.o)
 .bss           0x020880cc        0x0 c:/devkitpro/devkitarm/bin/../lib/gcc/arm-eabi/4.5.1/../../../../arm-eabi/lib/thumb\libg.a(lib_a-memchr.o)
 .bss           0x020880cc        0x0 c:/devkitpro/devkitarm/bin/../lib/gcc/arm-eabi/4.5.1/../../../../arm-eabi/lib/thumb\libg.a(lib_a-memcmp.o)
 .bss           0x020880cc        0x0 c:/devkitpro/devkitarm/bin/../lib/gcc/arm-eabi/4.5.1/../../../../arm-eabi/lib/thumb\libg.a(lib_a-memcpy.o)
 .bss           0x020880cc        0x0 c:/devkitpro/devkitarm/bin/../lib/gcc/arm-eabi/4.5.1/../../../../arm-eabi/lib/thumb\libg.a(lib_a-memmove.o)
 .bss           0x020880cc        0x0 c:/devkitpro/devkitarm/bin/../lib/gcc/arm-eabi/4.5.1/../../../../arm-eabi/lib/thumb\libg.a(lib_a-memset.o)
 .bss           0x020880cc        0x0 c:/devkitpro/devkitarm/bin/../lib/gcc/arm-eabi/4.5.1/../../../../arm-eabi/lib/thumb\libg.a(lib_a-mktime.o)
 .bss           0x020880cc        0x0 c:/devkitpro/devkitarm/bin/../lib/gcc/arm-eabi/4.5.1/../../../../arm-eabi/lib/thumb\libg.a(lib_a-mktm_r.o)
 .bss           0x020880cc        0x0 c:/devkitpro/devkitarm/bin/../lib/gcc/arm-eabi/4.5.1/../../../../arm-eabi/lib/thumb\libg.a(lib_a-mlock.o)
 .bss           0x020880cc        0x0 c:/devkitpro/devkitarm/bin/../lib/gcc/arm-eabi/4.5.1/../../../../arm-eabi/lib/thumb\libg.a(lib_a-printf.o)
 .bss           0x020880cc        0x0 c:/devkitpro/devkitarm/bin/../lib/gcc/arm-eabi/4.5.1/../../../../arm-eabi/lib/thumb\libg.a(lib_a-putc.o)
 .bss           0x020880cc        0x0 c:/devkitpro/devkitarm/bin/../lib/gcc/arm-eabi/4.5.1/../../../../arm-eabi/lib/thumb\libg.a(lib_a-putchar.o)
 .bss           0x020880cc        0x0 c:/devkitpro/devkitarm/bin/../lib/gcc/arm-eabi/4.5.1/../../../../arm-eabi/lib/thumb\libg.a(lib_a-puts.o)
 .bss           0x020880cc        0x0 c:/devkitpro/devkitarm/bin/../lib/gcc/arm-eabi/4.5.1/../../../../arm-eabi/lib/thumb\libg.a(lib_a-qsort.o)
 .bss           0x020880cc        0x0 c:/devkitpro/devkitarm/bin/../lib/gcc/arm-eabi/4.5.1/../../../../arm-eabi/lib/thumb\libg.a(lib_a-realloc.o)
 .bss           0x020880cc        0x0 c:/devkitpro/devkitarm/bin/../lib/gcc/arm-eabi/4.5.1/../../../../arm-eabi/lib/thumb\libg.a(lib_a-reallocr.o)
 .bss           0x020880cc        0x0 c:/devkitpro/devkitarm/bin/../lib/gcc/arm-eabi/4.5.1/../../../../arm-eabi/lib/thumb\libg.a(lib_a-refill.o)
 .bss           0x020880cc        0x0 c:/devkitpro/devkitarm/bin/../lib/gcc/arm-eabi/4.5.1/../../../../arm-eabi/lib/thumb\libg.a(lib_a-setbuf.o)
 .bss           0x020880cc        0x0 c:/devkitpro/devkitarm/bin/../lib/gcc/arm-eabi/4.5.1/../../../../arm-eabi/lib/thumb\libg.a(lib_a-setvbuf.o)
 .bss           0x020880cc        0x0 c:/devkitpro/devkitarm/bin/../lib/gcc/arm-eabi/4.5.1/../../../../arm-eabi/lib/thumb\libg.a(lib_a-signal.o)
 .bss           0x020880cc        0x0 c:/devkitpro/devkitarm/bin/../lib/gcc/arm-eabi/4.5.1/../../../../arm-eabi/lib/thumb\libg.a(lib_a-siscanf.o)
 .bss           0x020880cc        0x0 c:/devkitpro/devkitarm/bin/../lib/gcc/arm-eabi/4.5.1/../../../../arm-eabi/lib/thumb\libg.a(lib_a-sprintf.o)
 .bss           0x020880cc        0x0 c:/devkitpro/devkitarm/bin/../lib/gcc/arm-eabi/4.5.1/../../../../arm-eabi/lib/thumb\libg.a(lib_a-sscanf.o)
 .bss           0x020880cc        0x0 c:/devkitpro/devkitarm/bin/../lib/gcc/arm-eabi/4.5.1/../../../../arm-eabi/lib/thumb\libg.a(lib_a-stdio.o)
 .bss           0x020880cc        0x0 c:/devkitpro/devkitarm/bin/../lib/gcc/arm-eabi/4.5.1/../../../../arm-eabi/lib/thumb\libg.a(lib_a-strcasecmp.o)
 .bss           0x020880cc        0x0 c:/devkitpro/devkitarm/bin/../lib/gcc/arm-eabi/4.5.1/../../../../arm-eabi/lib/thumb\libg.a(lib_a-strcat.o)
 .bss           0x020880cc        0x0 c:/devkitpro/devkitarm/bin/../lib/gcc/arm-eabi/4.5.1/../../../../arm-eabi/lib/thumb\libg.a(lib_a-strchr.o)
 .bss           0x020880cc        0x0 c:/devkitpro/devkitarm/bin/../lib/gcc/arm-eabi/4.5.1/../../../../arm-eabi/lib/thumb\libg.a(lib_a-strcmp.o)
 .bss           0x020880cc        0x0 c:/devkitpro/devkitarm/bin/../lib/gcc/arm-eabi/4.5.1/../../../../arm-eabi/lib/thumb\libg.a(lib_a-strcpy.o)
 .bss           0x020880cc        0x0 c:/devkitpro/devkitarm/bin/../lib/gcc/arm-eabi/4.5.1/../../../../arm-eabi/lib/thumb\libg.a(lib_a-strlcpy.o)
 .bss           0x020880cc        0x0 c:/devkitpro/devkitarm/bin/../lib/gcc/arm-eabi/4.5.1/../../../../arm-eabi/lib/thumb\libg.a(lib_a-strlen.o)
 .bss           0x020880cc        0x0 c:/devkitpro/devkitarm/bin/../lib/gcc/arm-eabi/4.5.1/../../../../arm-eabi/lib/thumb\libg.a(lib_a-strncasecmp.o)
 .bss           0x020880cc        0x0 c:/devkitpro/devkitarm/bin/../lib/gcc/arm-eabi/4.5.1/../../../../arm-eabi/lib/thumb\libg.a(lib_a-strncmp.o)
 .bss           0x020880cc        0x0 c:/devkitpro/devkitarm/bin/../lib/gcc/arm-eabi/4.5.1/../../../../arm-eabi/lib/thumb\libg.a(lib_a-strncpy.o)
 .bss           0x020880cc        0x0 c:/devkitpro/devkitarm/bin/../lib/gcc/arm-eabi/4.5.1/../../../../arm-eabi/lib/thumb\libg.a(lib_a-strnlen.o)
 .bss           0x020880cc        0x0 c:/devkitpro/devkitarm/bin/../lib/gcc/arm-eabi/4.5.1/../../../../arm-eabi/lib/thumb\libg.a(lib_a-strpbrk.o)
 .bss           0x020880cc        0x0 c:/devkitpro/devkitarm/bin/../lib/gcc/arm-eabi/4.5.1/../../../../arm-eabi/lib/thumb\libg.a(lib_a-strrchr.o)
 .bss           0x020880cc        0x0 c:/devkitpro/devkitarm/bin/../lib/gcc/arm-eabi/4.5.1/../../../../arm-eabi/lib/thumb\libg.a(lib_a-strtol.o)
 .bss           0x020880cc        0x0 c:/devkitpro/devkitarm/bin/../lib/gcc/arm-eabi/4.5.1/../../../../arm-eabi/lib/thumb\libg.a(lib_a-strupr.o)
 .bss           0x020880cc        0x0 c:/devkitpro/devkitarm/bin/../lib/gcc/arm-eabi/4.5.1/../../../../arm-eabi/lib/thumb\libg.a(lib_a-svfiscanf.o)
 .bss           0x020880cc        0x0 c:/devkitpro/devkitarm/bin/../lib/gcc/arm-eabi/4.5.1/../../../../arm-eabi/lib/thumb\libg.a(lib_a-svfprintf.o)
 .bss           0x020880cc        0x0 c:/devkitpro/devkitarm/bin/../lib/gcc/arm-eabi/4.5.1/../../../../arm-eabi/lib/thumb\libg.a(lib_a-svfscanf.o)
 .bss           0x020880cc        0x0 c:/devkitpro/devkitarm/bin/../lib/gcc/arm-eabi/4.5.1/../../../../arm-eabi/lib/thumb\libg.a(lib_a-sysclose.o)
 .bss           0x020880cc        0x0 c:/devkitpro/devkitarm/bin/../lib/gcc/arm-eabi/4.5.1/../../../../arm-eabi/lib/thumb\libg.a(lib_a-sysfstat.o)
 .bss           0x020880cc        0x0 c:/devkitpro/devkitarm/bin/../lib/gcc/arm-eabi/4.5.1/../../../../arm-eabi/lib/thumb\libg.a(lib_a-syslseek.o)
 .bss           0x020880cc        0x0 c:/devkitpro/devkitarm/bin/../lib/gcc/arm-eabi/4.5.1/../../../../arm-eabi/lib/thumb\libg.a(lib_a-sysopen.o)
 .bss           0x020880cc        0x0 c:/devkitpro/devkitarm/bin/../lib/gcc/arm-eabi/4.5.1/../../../../arm-eabi/lib/thumb\libg.a(lib_a-sysread.o)
 .bss           0x020880cc        0x0 c:/devkitpro/devkitarm/bin/../lib/gcc/arm-eabi/4.5.1/../../../../arm-eabi/lib/thumb\libg.a(lib_a-sysstat.o)
 .bss           0x020880cc        0x0 c:/devkitpro/devkitarm/bin/../lib/gcc/arm-eabi/4.5.1/../../../../arm-eabi/lib/thumb\libg.a(lib_a-syswrite.o)
 .bss           0x020880cc        0x0 c:/devkitpro/devkitarm/bin/../lib/gcc/arm-eabi/4.5.1/../../../../arm-eabi/lib/thumb\libg.a(lib_a-time.o)
 .bss           0x020880cc        0x0 c:/devkitpro/devkitarm/bin/../lib/gcc/arm-eabi/4.5.1/../../../../arm-eabi/lib/thumb\libg.a(lib_a-towlower.o)
 .bss           0x020880cc        0x0 c:/devkitpro/devkitarm/bin/../lib/gcc/arm-eabi/4.5.1/../../../../arm-eabi/lib/thumb\libg.a(lib_a-towupper.o)
 .bss           0x020880cc        0x0 c:/devkitpro/devkitarm/bin/../lib/gcc/arm-eabi/4.5.1/../../../../arm-eabi/lib/thumb\libg.a(lib_a-tzlock.o)
 .bss           0x020880cc        0x8 c:/devkitpro/devkitarm/bin/../lib/gcc/arm-eabi/4.5.1/../../../../arm-eabi/lib/thumb\libg.a(lib_a-tzvars.o)
                0x020880cc                _daylight
                0x020880d0                _timezone
 .bss           0x020880d4        0x0 c:/devkitpro/devkitarm/bin/../lib/gcc/arm-eabi/4.5.1/../../../../arm-eabi/lib/thumb\libg.a(lib_a-ungetc.o)
 .bss           0x020880d4        0x0 c:/devkitpro/devkitarm/bin/../lib/gcc/arm-eabi/4.5.1/../../../../arm-eabi/lib/thumb\libg.a(lib_a-vfiprintf.o)
 .bss           0x020880d4        0x0 c:/devkitpro/devkitarm/bin/../lib/gcc/arm-eabi/4.5.1/../../../../arm-eabi/lib/thumb\libg.a(lib_a-vfprintf.o)
 .bss           0x020880d4        0x0 c:/devkitpro/devkitarm/bin/../lib/gcc/arm-eabi/4.5.1/../../../../arm-eabi/lib/thumb\libg.a(lib_a-vfscanf.o)
 .bss           0x020880d4        0x0 c:/devkitpro/devkitarm/bin/../lib/gcc/arm-eabi/4.5.1/../../../../arm-eabi/lib/thumb\libg.a(lib_a-vprintf.o)
 .bss           0x020880d4        0x0 c:/devkitpro/devkitarm/bin/../lib/gcc/arm-eabi/4.5.1/../../../../arm-eabi/lib/thumb\libg.a(lib_a-wbuf.o)
 .bss           0x020880d4        0x0 c:/devkitpro/devkitarm/bin/../lib/gcc/arm-eabi/4.5.1/../../../../arm-eabi/lib/thumb\libg.a(lib_a-wcrtomb.o)
 .bss           0x020880d4        0x0 c:/devkitpro/devkitarm/bin/../lib/gcc/arm-eabi/4.5.1/../../../../arm-eabi/lib/thumb\libg.a(lib_a-wcsrtombs.o)
 .bss           0x020880d4        0x0 c:/devkitpro/devkitarm/bin/../lib/gcc/arm-eabi/4.5.1/../../../../arm-eabi/lib/thumb\libg.a(lib_a-wctob.o)
 .bss           0x020880d4        0x0 c:/devkitpro/devkitarm/bin/../lib/gcc/arm-eabi/4.5.1/../../../../arm-eabi/lib/thumb\libg.a(lib_a-wctomb_r.o)
 .bss           0x020880d4        0x0 c:/devkitpro/devkitarm/bin/../lib/gcc/arm-eabi/4.5.1/../../../../arm-eabi/lib/thumb\libg.a(lib_a-wsetup.o)
 .bss           0x020880d4        0x0 c:/devkitpro/devkitarm/bin/../lib/gcc/arm-eabi/4.5.1/../../../../arm-eabi/lib/thumb\libg.a(lib_a-__call_atexit.o)
 .bss           0x020880d4        0x0 c:/devkitpro/devkitarm/bin/../lib/gcc/arm-eabi/4.5.1/../../../../arm-eabi/lib/thumb\libg.a(lib_a-div.o)
 .bss           0x020880d4        0x0 c:/devkitpro/devkitarm/bin/../lib/gcc/arm-eabi/4.5.1/../../../../arm-eabi/lib/thumb\libg.a(lib_a-dtoa.o)
 .bss           0x020880d4        0x0 c:/devkitpro/devkitarm/bin/../lib/gcc/arm-eabi/4.5.1/../../../../arm-eabi/lib/thumb\libg.a(lib_a-flags.o)
 .bss           0x020880d4        0x0 c:/devkitpro/devkitarm/bin/../lib/gcc/arm-eabi/4.5.1/../../../../arm-eabi/lib/thumb\libg.a(lib_a-fputwc.o)
 .bss           0x020880d4        0x0 c:/devkitpro/devkitarm/bin/../lib/gcc/arm-eabi/4.5.1/../../../../arm-eabi/lib/thumb\libg.a(lib_a-fvwrite.o)
 .bss           0x020880d4        0x0 c:/devkitpro/devkitarm/bin/../lib/gcc/arm-eabi/4.5.1/../../../../arm-eabi/lib/thumb\libg.a(lib_a-getenv_r.o)
 .bss           0x020880d4        0x0 c:/devkitpro/devkitarm/bin/../lib/gcc/arm-eabi/4.5.1/../../../../arm-eabi/lib/thumb\libg.a(lib_a-gettzinfo.o)
 .bss           0x020880d4        0x0 c:/devkitpro/devkitarm/bin/../lib/gcc/arm-eabi/4.5.1/../../../../arm-eabi/lib/thumb\libg.a(lib_a-iswspace.o)
 .bss           0x020880d4        0x0 c:/devkitpro/devkitarm/bin/../lib/gcc/arm-eabi/4.5.1/../../../../arm-eabi/lib/thumb\libg.a(lib_a-jp2uc.o)
 .bss           0x020880d4        0x0 c:/devkitpro/devkitarm/bin/../lib/gcc/arm-eabi/4.5.1/../../../../arm-eabi/lib/thumb\libg.a(lib_a-mbsnrtowcs.o)
 .bss           0x020880d4        0x0 c:/devkitpro/devkitarm/bin/../lib/gcc/arm-eabi/4.5.1/../../../../arm-eabi/lib/thumb\libg.a(lib_a-mprec.o)
 .bss           0x020880d4        0x0 c:/devkitpro/devkitarm/bin/../lib/gcc/arm-eabi/4.5.1/../../../../arm-eabi/lib/thumb\libg.a(lib_a-sccl.o)
 .bss           0x020880d4        0x0 c:/devkitpro/devkitarm/bin/../lib/gcc/arm-eabi/4.5.1/../../../../arm-eabi/lib/thumb\libg.a(lib_a-sf_nan.o)
 .bss           0x020880d4        0x0 c:/devkitpro/devkitarm/bin/../lib/gcc/arm-eabi/4.5.1/../../../../arm-eabi/lib/thumb\libg.a(lib_a-strtod.o)
 .bss           0x020880d4        0x0 c:/devkitpro/devkitarm/bin/../lib/gcc/arm-eabi/4.5.1/../../../../arm-eabi/lib/thumb\libg.a(lib_a-strtoll_r.o)
 .bss           0x020880d4        0x0 c:/devkitpro/devkitarm/bin/../lib/gcc/arm-eabi/4.5.1/../../../../arm-eabi/lib/thumb\libg.a(lib_a-strtoul.o)
 .bss           0x020880d4        0x0 c:/devkitpro/devkitarm/bin/../lib/gcc/arm-eabi/4.5.1/../../../../arm-eabi/lib/thumb\libg.a(lib_a-strtoull_r.o)
 .bss           0x020880d4        0x0 c:/devkitpro/devkitarm/bin/../lib/gcc/arm-eabi/4.5.1/../../../../arm-eabi/lib/thumb\libg.a(lib_a-svfiprintf.o)
 .bss           0x020880d4        0x0 c:/devkitpro/devkitarm/bin/../lib/gcc/arm-eabi/4.5.1/../../../../arm-eabi/lib/thumb\libg.a(lib_a-wcsnrtombs.o)
 .bss           0x020880d4        0x4 c:/devkitpro/devkitarm/bin/../lib/gcc/arm-eabi/4.5.1/../../../../arm-eabi/lib/thumb\libg.a(lib_a-environ.o)
 .bss           0x020880d8        0x0 c:/devkitpro/devkitarm/bin/../lib/gcc/arm-eabi/4.5.1/../../../../arm-eabi/lib/thumb\libg.a(lib_a-envlock.o)
 .bss           0x020880d8        0x0 c:/devkitpro/devkitarm/bin/../lib/gcc/arm-eabi/4.5.1/../../../../arm-eabi/lib/thumb\libg.a(lib_a-gdtoa-gethex.o)
 .bss           0x020880d8        0x0 c:/devkitpro/devkitarm/bin/../lib/gcc/arm-eabi/4.5.1/../../../../arm-eabi/lib/thumb\libg.a(lib_a-gdtoa-hexnan.o)
 .bss           0x020880d8        0x0 c:/devkitpro/devkitarm/bin/../lib/gcc/arm-eabi/4.5.1/../../../../arm-eabi/lib/thumb\libsysbase.a(iosupport.o)
 .bss           0x020880d8        0x0 c:/devkitpro/devkitarm/bin/../lib/gcc/arm-eabi/4.5.1/../../../../arm-eabi/lib/thumb\libsysbase.a(close.o)
 .bss           0x020880d8        0x0 c:/devkitpro/devkitarm/bin/../lib/gcc/arm-eabi/4.5.1/../../../../arm-eabi/lib/thumb\libsysbase.a(fstat.o)
 .bss           0x020880d8        0x0 c:/devkitpro/devkitarm/bin/../lib/gcc/arm-eabi/4.5.1/../../../../arm-eabi/lib/thumb\libsysbase.a(getpid.o)
 .bss           0x020880d8        0x0 c:/devkitpro/devkitarm/bin/../lib/gcc/arm-eabi/4.5.1/../../../../arm-eabi/lib/thumb\libsysbase.a(isatty.o)
 .bss           0x020880d8        0x0 c:/devkitpro/devkitarm/bin/../lib/gcc/arm-eabi/4.5.1/../../../../arm-eabi/lib/thumb\libsysbase.a(kill.o)
 .bss           0x020880d8        0x0 c:/devkitpro/devkitarm/bin/../lib/gcc/arm-eabi/4.5.1/../../../../arm-eabi/lib/thumb\libsysbase.a(lseek.o)
 .bss           0x020880d8        0x0 c:/devkitpro/devkitarm/bin/../lib/gcc/arm-eabi/4.5.1/../../../../arm-eabi/lib/thumb\libsysbase.a(open.o)
 .bss           0x020880d8        0x0 c:/devkitpro/devkitarm/bin/../lib/gcc/arm-eabi/4.5.1/../../../../arm-eabi/lib/thumb\libsysbase.a(read.o)
 .bss           0x020880d8        0x4 c:/devkitpro/devkitarm/bin/../lib/gcc/arm-eabi/4.5.1/../../../../arm-eabi/lib/thumb\libsysbase.a(sbrk.o)
 .bss           0x020880dc        0x0 c:/devkitpro/devkitarm/bin/../lib/gcc/arm-eabi/4.5.1/../../../../arm-eabi/lib/thumb\libsysbase.a(stat.o)
 .bss           0x020880dc        0x0 c:/devkitpro/devkitarm/bin/../lib/gcc/arm-eabi/4.5.1/../../../../arm-eabi/lib/thumb\libsysbase.a(times.o)
 .bss           0x020880dc        0x0 c:/devkitpro/devkitarm/bin/../lib/gcc/arm-eabi/4.5.1/../../../../arm-eabi/lib/thumb\libsysbase.a(write.o)
 .bss           0x020880dc        0x0 c:/devkitpro/devkitarm/bin/../lib/gcc/arm-eabi/4.5.1/../../../../arm-eabi/lib/thumb\libsysbase.a(_exit.o)
 .bss           0x020880dc        0x8 c:/devkitpro/devkitarm/bin/../lib/gcc/arm-eabi/4.5.1/../../../../arm-eabi/lib/thumb\libsysbase.a(malloc_vars.o)
                0x020880dc                fake_heap_end
                0x020880e0                fake_heap_start
 .bss           0x020880e4        0x0 c:/devkitpro/devkitarm/bin/../lib/gcc/arm-eabi/4.5.1/../../../../arm-eabi/lib/thumb\libsysbase.a(chdir.o)
 .bss           0x020880e4        0x0 c:/devkitpro/devkitarm/bin/../lib/gcc/arm-eabi/4.5.1/../../../../arm-eabi/lib/thumb\libsysbase.a(build_argv.o)
 .bss           0x020880e4        0x8 c:/devkitpro/devkitarm/bin/../lib/gcc/arm-eabi/4.5.1/../../../../arm-eabi/lib/thumb\libsysbase.a(syscall_support.o)
                0x020880e4                __syscalls
 .bss           0x020880ec     0x1000 c:/devkitpro/devkitarm/bin/../lib/gcc/arm-eabi/4.5.1/../../../../arm-eabi/lib/thumb\libsysbase.a(handle_manager.o)
 .bss           0x020890ec        0x0 c:/devkitpro/devkitarm/bin/../lib/gcc/arm-eabi/4.5.1/thumb\libgcc.a(_arm_fixunsdfsi.o)
 .bss           0x020890ec        0x0 c:/devkitpro/devkitarm/bin/../lib/gcc/arm-eabi/4.5.1/thumb\libgcc.a(_aeabi_uldivmod.o)
 .bss           0x020890ec        0x0 c:/devkitpro/devkitarm/bin/../lib/gcc/arm-eabi/4.5.1/thumb/crtend.o
 .bss           0x020890ec        0x0 c:/devkitpro/devkitarm/bin/../lib/gcc/arm-eabi/4.5.1/thumb/crtn.o
 *(COMMON)
 *fill*         0x020890ec        0x4 00
 COMMON         0x020890f0    0x1f5c4 ds_render.o
                0x020890f0                viewheightfrac
                0x020890f4                failCount
                0x020890f8                c_occludedSprites
                0x02089100                glMVPmatrixd
                0x02089180                sky_mask_polyid
                0x02089184                numSectorPlanes
                0x02089188                glMVPmatrix
                0x020891c8                dsMat
                0x02089208                glView
                0x02089218                sectorPlanes
                0x0208c218                gl_walls
                0x020a6218                gl_sprites
                0x020a8418                occlusion
                0x020a851c                c_sectors
                0x020a8520                glPJPmatrixd
                0x020a85a0                occlusion_buffer
                0x020a86a0                c_subsectors
                0x020a86a4                lightingVector
                0x020a86b0                skyIsVisible
 COMMON         0x020a86b4       0x14 glMain.o
                0x020a86b4                vz
                0x020a86b8                vx
                0x020a86bc                ds_triangles
                0x020a86c0                vy
                0x020a86c4                ds_quads
 COMMON         0x020a86c8       0x10 template.o
                0x020a86c8                ds_display_bottom_height
                0x020a86cc                ds_display_bottom
                0x020a86d0                ds_display_menu
                0x020a86d4                ds_display_top
 COMMON         0x020a86d8      0x298 AM_MAP.o
                0x020a86d8                thintriangle_guy
                0x020a8708                cheat_player_arrow
                0x020a8808                keysquare
                0x020a8888                KeyPoints
                0x020a88a0                triangle_guy
                0x020a88d0                player_arrow
 COMMON         0x020a8970      0x514 CT_CHAT.o
                0x020a8970                altdown
                0x020a8974                chat_msg
                0x020a8b74                plr_lastmsg
                0x020a8d98                tail
                0x020a8d9c                ChatQueue
                0x020a8e1c                head
                0x020a8e20                cheated
                0x020a8e24                chat_macros
                0x020a8e4c                msglen
                0x020a8e5c                chat_dest
                0x020a8e6c                msgptr
                0x020a8e7c                shiftdown
                0x020a8e80                chatmodeon
 COMMON         0x020a8e84      0x670 D_MAIN.o
                0x020a8e84                debugfile
                0x020a8e88                BorderNeedRefresh
                0x020a8e8c                startmap
                0x020a8e90                singletics
                0x020a8e94                exrnwads2
                0x020a8ee4                startup
                0x020a8ee8                noartiskip
                0x020a8eec                debugmode
                0x020a8ef0                cdrom
                0x020a8ef4                smsg
                0x020a8f44                exrnwads
                0x020a8f94                pagetic
                0x020a8f98                startskill
                0x020a8f9c                respawnparm
                0x020a8fa0                demosequence
                0x020a8fa4                nomonsters
                0x020a8fa8                tmsg
                0x020a90d4                thermMax
                0x020a90d8                ravpic
                0x020a90dc                pagename
                0x020a90e0                autostart
                0x020a90e4                events
                0x020a94e4                advancedemo
                0x020a94e8                thermCurrent
                0x020a94ec                startepisode
                0x020a94f0                hscreen
 COMMON         0x020a94f4      0x5d4 D_NET.o
                0x020a94f4                netbuffer
                0x020a94f8                reboundstore
                0x020a95c0                maketic
                0x020a95c4                nettics
                0x020a95e4                localcmds
                0x020a96a4                frametics
                0x020a96b4                maxsend
                0x020a96b8                skiptics
                0x020a96bc                resendcount
                0x020a96dc                exitmsg
                0x020a972c                netcmds
                0x020a9a2c                nodeforplayer
                0x020a9a3c                reboundpacket
                0x020a9a40                frameskip
                0x020a9a50                ticdup
                0x020a9a54                doomcom
                0x020a9a58                nodeingame
                0x020a9a78                gametime
                0x020a9a7c                remoteresend
                0x020a9a9c                resendto
                0x020a9abc                frameon
                0x020a9ac0                oldnettics
                0x020a9ac4                lastnettic
 COMMON         0x020a9ac8       0x14 F_FINALE.o
                0x020a9ac8                finalecount
                0x020a9acc                FontABaseLump
                0x020a9ad0                finaleflat
                0x020a9ad4                finalestage
                0x020a9ad8                finaletext
 COMMON         0x020a9adc      0xe38 G_GAME.o
                0x020a9adc                timingdemo
                0x020a9ae0                paused
                0x020a9ae4                totalitems
                0x020a9ae8                joyymove
                0x020a9aec                starttime
                0x020a9af0                demoname
                0x020a9b10                key_flyup
                0x020a9b14                savebuffer
                0x020a9b18                dclicks2
                0x020a9b1c                mousebstrafe
                0x020a9b20                dclicktime2
                0x020a9b24                key_lookcenter
                0x020a9b28                d_skill
                0x020a9b2c                usergame
                0x020a9b30                respawnmonsters
                0x020a9b34                key_use
                0x020a9b38                prevmap
                0x020a9b3c                demobuffer
                0x020a9b40                defdemoname
                0x020a9b44                joybfire
                0x020a9b48                dclicktime
                0x020a9b4c                savename
                0x020a9c4c                consoleplayer
                0x020a9c50                key_strafeleft
                0x020a9c54                dclicks
                0x020a9c58                turnheld
                0x020a9c5c                players
                0x020aa38c                demo_p
                0x020aa390                gamekeydown
                0x020aa790                totalsecret
                0x020aa794                gamestate
                0x020aa798                netgame
                0x020aa79c                key_useartifact
                0x020aa7a0                mousey
                0x020aa7a4                key_straferight
                0x020aa7a8                singledemo
                0x020aa7ac                joybspeed
                0x020aa7b0                joyarray
                0x020aa7c4                consistancy
                0x020aa824                inventoryTics
                0x020aa828                mousebfire
                0x020aa82c                key_flydown
                0x020aa830                demoplayback
                0x020aa834                key_flycenter
                0x020aa838                totalkills
                0x020aa83c                gameskill
                0x020aa840                playeringame
                0x020aa850                savegameslot
                0x020aa854                gameepisode
                0x020aa858                key_invright
                0x020aa85c                joybstrafe
                0x020aa860                key_fire
                0x020aa864                SaveGameType
                0x020aa868                gametic
                0x020aa86c                joybuse
                0x020aa870                key_right
                0x020aa874                dclickstate
                0x020aa878                levelstarttic
                0x020aa87c                lookheld
                0x020aa880                d_map
                0x020aa884                demorecording
                0x020aa888                d_episode
                0x020aa88c                key_lookdown
                0x020aa890                joyxmove
                0x020aa894                deathmatch
                0x020aa898                displayplayer
                0x020aa89c                key_invleft
                0x020aa8a0                SaveGameFP
                0x020aa8a4                key_left
                0x020aa8a8                viewactive
                0x020aa8ac                key_strafe
                0x020aa8b0                key_down
                0x020aa8b4                save_p
                0x020aa8b8                key_up
                0x020aa8bc                sendsave
                0x020aa8c0                mousebforward
                0x020aa8c4                gamemap
                0x020aa8c8                gameaction
                0x020aa8cc                mousex
                0x020aa8d0                sendpause
                0x020aa8d4                mousearray
                0x020aa8e4                key_lookup
                0x020aa8e8                dclickstate2
                0x020aa8ec                secretexit
                0x020aa8f0                savedescription
                0x020aa910                key_speed
 COMMON         0x020aa914        0x4 IN_LUDE.o
                0x020aa914                intermission
 COMMON         0x020aa918      0x288 I_IBM.o
                0x020aa918                grmode
                0x020aa91c                basejoyx
                0x020aa920                UpdateState
                0x020aa924                novideo
                0x020aa928                kbdtail
                0x020aa92c                ds_palette
                0x020aab2c                joyyl
                0x020aab30                joyxl
                0x020aab34                pcscreen
                0x020aab38                keyboardque
                0x020aab78                mousepresent
                0x020aab7c                destview
                0x020aab80                ds_texture_pal
                0x020aab84                kbdhead
                0x020aab88                joystickpresent
                0x020aab8c                destscreen
                0x020aab90                joyyh
                0x020aab94                joyxh
                0x020aab98                basejoyy
                0x020aab9c                ticcount
 COMMON         0x020aaba0       0x2c I_SOUND.o
                0x020aaba0                snd_MusicVolume
                0x020aaba4                snd_SfxDevice
                0x020aaba8                snd_Mport
                0x020aabac                snd_SBirq
                0x020aabb0                snd_DesiredSfxDevice
                0x020aabb4                snd_MusicDevice
                0x020aabb8                snd_Channels
                0x020aabbc                snd_SBport
                0x020aabc0                snd_MaxVolume
                0x020aabc4                snd_SBdma
                0x020aabc8                snd_DesiredMusicDevice
 COMMON         0x020aabcc       0x14 MN_MENU.o
                0x020aabcc                askforquit
                0x020aabd0                typeofask
                0x020aabd4                InfoType
                0x020aabd8                messageson
                0x020aabdc                MenuActive
 COMMON         0x020aabe0       0x1c M_MISC.o
                0x020aabe0                mouseSensitivity
                0x020aabe4                myargv
                0x020aabe8                usemouse
                0x020aabec                defaultfile
                0x020aabf0                numdefaults
                0x020aabf4                myargc
                0x020aabf8                usejoystick
 COMMON         0x020aabfc       0x78 P_CEILNG.o
                0x020aabfc                activeceilings
 COMMON         0x020aac74       0x88 P_ENEMY.o
                0x020aac74                bodyque
                0x020aacf4                soundtarget
                0x020aacf8                bodyqueslot
 COMMON         0x020aacfc        0x4 P_INTER.o
                0x020aacfc                ultimatemsg
 COMMON         0x020aad00       0xa8 P_MAP.o
                0x020aad00                shootthing
                0x020aad04                tmflags
                0x020aad08                tmceilingz
                0x020aad0c                bombdamage
                0x020aad10                tmthing
                0x020aad14                tmx
                0x020aad18                nofit
                0x020aad1c                secondslidefrac
                0x020aad20                ceilingline
                0x020aad24                bombspot
                0x020aad28                tmfloorz
                0x020aad2c                bombsource
                0x020aad30                attackrange
                0x020aad34                usething
                0x020aad38                shootz
                0x020aad3c                tmbbox
                0x020aad4c                tmy
                0x020aad50                linetarget
                0x020aad54                onmobj
                0x020aad58                tmdropoffz
                0x020aad5c                numspechit
                0x020aad60                secondslideline
                0x020aad64                bestslidefrac
                0x020aad68                floatok
                0x020aad6c                aimslope
                0x020aad70                tmxmove
                0x020aad74                la_damage
                0x020aad78                tmymove
                0x020aad7c                bestslideline
                0x020aad80                spechit
                0x020aada0                crushchange
                0x020aada4                slidemo
 COMMON         0x020aada8      0x62c P_MAPUTL.o
                0x020aada8                openbottom
                0x020aadac                openrange
                0x020aadb0                trace
                0x020aadc0                opentop
                0x020aadc4                intercepts
                0x020ab3c4                earlyout
                0x020ab3c8                intercept_p
                0x020ab3cc                ptflags
                0x020ab3d0                lowfloor
 COMMON         0x020ab3d4        0x6 P_MOBJ.o
                0x020ab3d4                MissileMobj
                0x020ab3d8                PuffType
 *fill*         0x020ab3da        0x2 00
 COMMON         0x020ab3dc       0x78 P_PLATS.o
                0x020ab3dc                activeplats
 COMMON         0x020ab454        0x4 P_PSPR.o
                0x020ab454                bulletslope
 COMMON         0x020ab458       0xe8 P_SETUP.o
                0x020ab458                sectors
                0x020ab45c                bmapwidth
                0x020ab460                vertexes
                0x020ab464                deathmatch_p
                0x020ab468                bmaporgy
                0x020ab46c                numsides
                0x020ab470                blockmaplump
                0x020ab474                rejectmatrix
                0x020ab478                numvertexes
                0x020ab47c                playerstarts
                0x020ab4a4                numsectors
                0x020ab4a8                deathmatchstarts
                0x020ab50c                bmaporgx
                0x020ab510                subsectors
                0x020ab514                segs
                0x020ab518                numsegs
                0x020ab51c                bmapheight
                0x020ab520                numlines
                0x020ab524                nodes
                0x020ab528                numnodes
                0x020ab52c                sides
                0x020ab530                blockmap
                0x020ab534                blocklinks
                0x020ab538                numsubsectors
                0x020ab53c                lines
 COMMON         0x020ab540       0x18 P_SIGHT.o
                0x020ab540                topslope
                0x020ab544                sightcounts
                0x020ab550                bottomslope
                0x020ab554                sightzstart
 COMMON         0x020ab558      0x464 P_SPEC.o
                0x020ab558                AmbSfxCount
                0x020ab55c                numlinespecials
                0x020ab560                TerrainTypes
                0x020ab564                linespeciallist
                0x020ab664                LevelAmbientSfx
                0x020ab684                LavaInflictor
                0x020ab72c                AmbSfxVolume
                0x020ab730                anims
                0x020ab9b0                lastanim
                0x020ab9b4                AmbSfxTics
                0x020ab9b8                AmbSfxPtr
 COMMON         0x020ab9bc      0x2d4 P_SWITCH.o
                0x020ab9bc                numswitches
                0x020ab9c0                switchlist
                0x020abb50                buttonlist
 COMMON         0x020abc90       0x18 P_TICK.o
                0x020abc90                thinkercap
                0x020abc9c                specials_e
                0x020abca0                leveltime
                0x020abca4                TimerGame
 COMMON         0x020abca8        0xc P_USER.o
                0x020abca8                newtorch
                0x020abcac                newtorchdelta
                0x020abcb0                onground
 COMMON         0x020abcb4       0x78 R_DATA.o
                0x020abcb4                spriteheight
                0x020abcb8                numflats
                0x020abcbc                texturecolumnlump
                0x020abcc0                texturecolumnofs
                0x020abcc4                textureheight
                0x020abcc8                numpatches
                0x020abccc                firstflat
                0x020abcd0                flattranslation
                0x020abcd4                textures_ds
                0x020abcd8                flats_ds
                0x020abcdc                texturememory
                0x020abce0                lastspritelump
                0x020abce4                texturecompositesize
                0x020abce8                spritewidth
                0x020abcec                texturewidthmask
                0x020abcf0                flatmemory
                0x020abcf4                lastflat
                0x020abcf8                texturetranslation
                0x020abcfc                numtextures
                0x020abd00                sprites_ds
                0x020abd04                spriteoffset
                0x020abd08                firstspritelump
                0x020abd0c                lastpatch
                0x020abd10                textures
                0x020abd14                colormaps
                0x020abd18                spritememory
                0x020abd1c                spritetopoffset
                0x020abd20                firstpatch
                0x020abd24                texturecomposite
                0x020abd28                numspritelumps
 COMMON         0x020abd2c     0x7254 R_MAIN.o
                0x020abd2c                detailshift
                0x020abd30                skytexture
                0x020abd34                BorderTopRefresh
                0x020abd38                centery
                0x020abd3c                projection
                0x020abd40                viewcos
                0x020abd44                fixedcolormap
                0x020abd48                transcolfunc
                0x020abd4c                zlight
                0x020add4c                extralight
                0x020add50                fuzzcolfunc
                0x020add54                viewy
                0x020add58                viewangletox
                0x020b1d58                framecount
                0x020b1d5c                setsizeneeded
                0x020b1d60                xtoviewangle
                0x020b2264                loopcount
                0x020b2268                screenblocks
                0x020b226c                scalelight
                0x020b2e6c                setdetail
                0x020b2e70                colfunc
                0x020b2e74                linecount
                0x020b2e78                clipangle
                0x020b2e7c                detailLevel
                0x020b2e80                viewsin
                0x020b2e84                sscount
                0x020b2e88                centerx
                0x020b2e8c                spanfunc
                0x020b2e90                scalelightfixed
                0x020b2f50                basecolfunc
                0x020b2f54                viewplayer
                0x020b2f58                viewz
                0x020b2f5c                skyflatnum
                0x020b2f60                viewangleoffset
                0x020b2f64                setblocks
                0x020b2f68                centeryfrac
                0x020b2f6c                skytexturemid
                0x020b2f70                viewangle
                0x020b2f74                viewx
                0x020b2f78                centerxfrac
                0x020b2f7c                skyiscale
 COMMON         0x020b2f80      0x7f4 R_THINGS.o
                0x020b2f80                pspritescale
                0x020b2f84                sprites
                0x020b2f88                sprtemp
                0x020b3260                screenheightarray
                0x020b34e0                maxframe
                0x020b34e4                numsprites
                0x020b34e8                pspriteiscale
                0x020b34ec                spritename
                0x020b34f0                spritelights
                0x020b34f4                negonearray
 COMMON         0x020b3774       0xbc SB_BAR.o
                0x020b3774                curpos
                0x020b3778                PatchARMCLEAR
                0x020b377c                PatchBARBACK
                0x020b3780                ArtifactFlash
                0x020b3784                PatchSTATBAR
                0x020b3788                PatchRTFACE
                0x020b378c                PatchRTFCTOP
                0x020b3790                PatchINumbers
                0x020b37b8                PatchSmNumbers
                0x020b37e0                PatchNEGATIVE
                0x020b37e4                PatchINVRTGEM2
                0x020b37e8                spinflylump
                0x020b37ec                PatchCHAIN
                0x020b37f0                inventory
                0x020b37f4                FontBNumBase
                0x020b37f8                PatchINVLFGEM2
                0x020b37fc                DebugSound
                0x020b3800                playpalette
                0x020b3804                PatchINVRTGEM1
                0x020b3808                spinbooklump
                0x020b380c                PatchCHAINBACK
                0x020b3810                PatchSELECTBOX
                0x020b3814                PatchINVBAR
                0x020b3818                PatchLIFEGEM
                0x020b381c                PatchBLACKSQ
                0x020b3820                PatchLTFCTOP
                0x020b3824                PatchINVLFGEM1
                0x020b3828                inv_ptr
                0x020b382c                PatchLTFACE
 COMMON         0x020b3830       0x18 V_VIDEO.o
                0x020b3830                screen
                0x020b3834                dirtybox
                0x020b3844                usegamma
 COMMON         0x020b3848        0xc W_WAD.o
                0x020b3848                numlumps
                0x020b384c                lumpcache
                0x020b3850                lumpinfo
 COMMON         0x020b3854        0x8 Z_ZONE.o
                0x020b3854                MallocFailureOk
                0x020b3858                mainzone
 COMMON         0x020b385c      0x7d4 ds_textures.o
                0x020b385c                ds_blocks
                0x020b38bc                DS_TEXTURE_BASE4
                0x020b38c0                DS_TEXTURE_BASE
                0x020b38c4                ds_textures3
                0x020b3924                ds_textures2
                0x020b3a24                ds_textures
                0x020b3e24                DS_TEXTURE_BASE3
                0x020b3e28                ds_textures4
                0x020b4028                host_basepal
                0x020b402c                DS_TEXTURE_BASE2
 COMMON         0x020b4030       0x1c geometry.o
                0x020b4030                floors_ds
                0x020b4034                lines_ds
                0x020b4044                floors_ds2
                0x020b4048                floors_ds3
 COMMON         0x020b404c       0x10 soundst.o
                0x020b404c                mus_lumpnum
                0x020b4050                mus_sndptr
                0x020b4054                AmbChan
                0x020b4058                soundCurve
 COMMON         0x020b405c      0x148 c:/devkitPro/libnds/lib\libnds9.a(background.o)
                0x020b405c                bgState
                0x020b419c                bgIsTextLut
 COMMON         0x020b41a4       0x5c c:/devkitPro/libnds/lib\libnds9.a(console.o)
                0x020b41a4                currentCopy
 COMMON         0x020b4200       0x4c c:/devkitPro/libnds/lib\libnds9.a(videoGL.o)
                0x020b4200                glGlobalData
 COMMON         0x020b424c        0x1 c:/devkitPro/libnds/lib\libnds9.a(initSystem.o)
                0x020b424c                __dsimode
 *fill*         0x020b424d        0x3 00
 COMMON         0x020b4250      0xa40 c:/devkitPro/libnds/lib\libnds9.a(fifosystem.o)
                0x020b4250                fifo_datamsg_data
                0x020b4290                fifo_buffer
                0x020b4a90                fifo_value32_func
                0x020b4ad0                fifo_address_func
                0x020b4b10                fifo_value32_data
                0x020b4b50                fifo_value32_queue
                0x020b4b90                fifo_data_queue
                0x020b4bd0                fifo_address_data
                0x020b4c10                fifo_datamsg_func
                0x020b4c50                fifo_address_queue
 COMMON         0x020b4c90      0x100 c:/devkitpro/devkitarm/bin/../lib/gcc/arm-eabi/4.5.1/../../../../arm-eabi/lib/thumb\libg.a(lib_a-gdtoa-gethex.o)
                0x020b4c90                __hexdig
 COMMON         0x020b4d90        0x4 c:/devkitpro/devkitarm/bin/../lib/gcc/arm-eabi/4.5.1/../../../../arm-eabi/lib/thumb\libsysbase.a(times.o)
                0x020b4d90                punixTime
                0x020b4d94                . = ALIGN (0x4)
                0x020b4d94                __bss_end = ABSOLUTE (.)
                0x020b4d94                __bss_end__ = __bss_end
                0x020b4d94                _end = __bss_end__
                0x020b4d94                __end__ = __bss_end__

.stab
 *(.stab)

.stabstr
 *(.stabstr)

.stab.excl
 *(.stab.excl)

.stab.exclstr
 *(.stab.exclstr)

.stab.index
 *(.stab.index)

.stab.indexstr
 *(.stab.indexstr)

.ARM.attributes
                0x00000000       0x2d load address 0x0208750c
 .ARM.attributes
                0x00000000       0x21 c:/devkitpro/devkitarm/bin/../lib/gcc/arm-eabi/4.5.1/../../../../arm-eabi/lib/thumb/ds_arm9_crt0.o
 .ARM.attributes
                0x00000021       0x20 c:/devkitpro/devkitarm/bin/../lib/gcc/arm-eabi/4.5.1/thumb/crti.o
 .ARM.attributes
                0x00000041       0x30 c:/devkitpro/devkitarm/bin/../lib/gcc/arm-eabi/4.5.1/thumb/crtbegin.o
 .ARM.attributes
                0x00000071       0x27 ds_render.o
 .ARM.attributes
                0x00000098       0x27 glMain.o
 .ARM.attributes
                0x000000bf       0x27 template.o
 .ARM.attributes
                0x000000e6       0x27 AM_MAP.o
 .ARM.attributes
                0x0000010d       0x27 CT_CHAT.o
 .ARM.attributes
                0x00000134       0x27 D_MAIN.o
 .ARM.attributes
                0x0000015b       0x27 D_NET.o
 .ARM.attributes
                0x00000182       0x27 F_FINALE.o
 .ARM.attributes
                0x000001a9       0x27 G_GAME.o
 .ARM.attributes
                0x000001d0       0x27 INFO.o
 .ARM.attributes
                0x000001f7       0x27 IN_LUDE.o
 .ARM.attributes
                0x0000021e       0x27 I_IBM.o
 .ARM.attributes
                0x00000245       0x27 I_SOUND.o
 .ARM.attributes
                0x0000026c       0x27 MN_MENU.o
 .ARM.attributes
                0x00000293       0x27 M_MISC.o
 .ARM.attributes
                0x000002ba       0x27 P_CEILNG.o
 .ARM.attributes
                0x000002e1       0x27 P_DOORS.o
 .ARM.attributes
                0x00000308       0x27 P_ENEMY.o
 .ARM.attributes
                0x0000032f       0x27 P_FLOOR.o
 .ARM.attributes
                0x00000356       0x27 P_INTER.o
 .ARM.attributes
                0x0000037d       0x27 P_LIGHTS.o
 .ARM.attributes
                0x000003a4       0x27 P_MAP.o
 .ARM.attributes
                0x000003cb       0x27 P_MAPUTL.o
 .ARM.attributes
                0x000003f2       0x27 P_MOBJ.o
 .ARM.attributes
                0x00000419       0x27 P_PLATS.o
 .ARM.attributes
                0x00000440       0x27 P_PSPR.o
 .ARM.attributes
                0x00000467       0x27 P_SETUP.o
 .ARM.attributes
                0x0000048e       0x27 P_SIGHT.o
 .ARM.attributes
                0x000004b5       0x27 P_SPEC.o
 .ARM.attributes
                0x000004dc       0x27 P_SWITCH.o
 .ARM.attributes
                0x00000503       0x27 P_TELEPT.o
 .ARM.attributes
                0x0000052a       0x27 P_TICK.o
 .ARM.attributes
                0x00000551       0x27 P_USER.o
 .ARM.attributes
                0x00000578       0x27 R_DATA.o
 .ARM.attributes
                0x0000059f       0x27 R_MAIN.o
 .ARM.attributes
                0x000005c6       0x27 R_THINGS.o
 .ARM.attributes
                0x000005ed       0x27 SB_BAR.o
 .ARM.attributes
                0x00000614       0x27 SOUNDS.o
 .ARM.attributes
                0x0000063b       0x27 TABLES.o
 .ARM.attributes
                0x00000662       0x27 V_VIDEO.o
 .ARM.attributes
                0x00000689       0x27 W_WAD.o
 .ARM.attributes
                0x000006b0       0x27 Z_ZONE.o
 .ARM.attributes
                0x000006d7       0x27 ds_textures.o
 .ARM.attributes
                0x000006fe       0x27 geometry.o
 .ARM.attributes
                0x00000725       0x27 polylib.o
 .ARM.attributes
                0x0000074c       0x27 soundst.o
 .ARM.attributes
                0x00000773       0x1b hexenarm.o
 .ARM.attributes
                0x0000078e       0x27 c:/devkitPro/libnds/lib\libfat.a(libfat.o)
 .ARM.attributes
                0x000007b5       0x27 c:/devkitPro/libnds/lib\libfat.a(partition.o)
 .ARM.attributes
                0x000007dc       0x27 c:/devkitPro/libnds/lib\libfat.a(cache.o)
 .ARM.attributes
                0x00000803       0x27 c:/devkitPro/libnds/lib\libfat.a(directory.o)
 .ARM.attributes
                0x0000082a       0x27 c:/devkitPro/libnds/lib\libfat.a(disc.o)
 .ARM.attributes
                0x00000851       0x27 c:/devkitPro/libnds/lib\libfat.a(fatdir.o)
 .ARM.attributes
                0x00000878       0x27 c:/devkitPro/libnds/lib\libfat.a(fatfile.o)
 .ARM.attributes
                0x0000089f       0x27 c:/devkitPro/libnds/lib\libfat.a(file_allocation_table.o)
 .ARM.attributes
                0x000008c6       0x27 c:/devkitPro/libnds/lib\libfat.a(filetime.o)
 .ARM.attributes
                0x000008ed       0x27 c:/devkitPro/libnds/lib\libfat.a(lock.o)
 .ARM.attributes
                0x00000914       0x27 c:/devkitPro/libnds/lib\libnds9.a(background.o)
 .ARM.attributes
                0x0000093b       0x27 c:/devkitPro/libnds/lib\libnds9.a(console.o)
 .ARM.attributes
                0x00000962       0x27 c:/devkitPro/libnds/lib\libnds9.a(gurumeditation.o)
 .ARM.attributes
                0x00000989       0x27 c:/devkitPro/libnds/lib\libnds9.a(keys.o)
 .ARM.attributes
                0x000009b0       0x27 c:/devkitPro/libnds/lib\libnds9.a(sassert.o)
 .ARM.attributes
                0x000009d7       0x27 c:/devkitPro/libnds/lib\libnds9.a(sound.o)
 .ARM.attributes
                0x000009fe       0x27 c:/devkitPro/libnds/lib\libnds9.a(touch.o)
 .ARM.attributes
                0x00000a25       0x27 c:/devkitPro/libnds/lib\libnds9.a(trig.o)
 .ARM.attributes
                0x00000a4c       0x27 c:/devkitPro/libnds/lib\libnds9.a(video.o)
 .ARM.attributes
                0x00000a73       0x27 c:/devkitPro/libnds/lib\libnds9.a(videoGL.o)
 .ARM.attributes
                0x00000a9a       0x27 c:/devkitPro/libnds/lib\libnds9.a(dldi.o)
 .ARM.attributes
                0x00000ac1       0x27 c:/devkitPro/libnds/lib\libnds9.a(dsi_sd.o)
 .ARM.attributes
                0x00000ae8       0x27 c:/devkitPro/libnds/lib\libnds9.a(initSystem.o)
 .ARM.attributes
                0x00000b0f       0x27 c:/devkitPro/libnds/lib\libnds9.a(fifosystem.o)
 .ARM.attributes
                0x00000b36       0x27 c:/devkitPro/libnds/lib\libnds9.a(interrupts.o)
 .ARM.attributes
                0x00000b5d       0x27 c:/devkitPro/libnds/lib\libnds9.a(libnds_exit.o)
 .ARM.attributes
                0x00000b84       0x1b c:/devkitPro/libnds/lib\libnds9.a(dcache.o)
 .ARM.attributes
                0x00000b9f       0x1b c:/devkitPro/libnds/lib\libnds9.a(exceptionHandler.o)
 .ARM.attributes
                0x00000bba       0x1b c:/devkitPro/libnds/lib\libnds9.a(dldi_stub.o)
 .ARM.attributes
                0x00000bd5       0x21 c:/devkitPro/libnds/lib\libnds9.a(mpu_setup.o)
 .ARM.attributes
                0x00000bf6       0x1b c:/devkitPro/libnds/lib\libnds9.a(biosCalls.o)
 .ARM.attributes
                0x00000c11       0x1b c:/devkitPro/libnds/lib\libnds9.a(debugprint.o)
 .ARM.attributes
                0x00000c2c       0x1b c:/devkitPro/libnds/lib\libnds9.a(interruptDispatcher.o)
 .ARM.attributes
                0x00000c47       0x21 c:/devkitPro/libnds/lib\libnds9.a(swiSoftReset.o)
 .ARM.attributes
                0x00000c68       0x14 c:/devkitPro/libnds/lib\libnds9.a(default_font.bin.o)
 .ARM.attributes
                0x00000c7c       0x27 c:/devkitPro/libnds/lib\libnds9.a(dynamicArray.o)
 .ARM.attributes
                0x00000ca3       0x27 c:/devkitPro/libnds/lib\libnds9.a(exceptions.o)
 .ARM.attributes
                0x00000cca       0x27 c:/devkitPro/libnds/lib\libnds9.a(system.o)
 .ARM.attributes
                0x00000cf1       0x30 c:/devkitpro/devkitarm/bin/../lib/gcc/arm-eabi/4.5.1/../../../../arm-eabi/lib/thumb\libm.a(lib_a-s_ceil.o)
 .ARM.attributes
                0x00000d21       0x30 c:/devkitpro/devkitarm/bin/../lib/gcc/arm-eabi/4.5.1/../../../../arm-eabi/lib/thumb\libm.a(lib_a-s_cos.o)
 .ARM.attributes
                0x00000d51       0x30 c:/devkitpro/devkitarm/bin/../lib/gcc/arm-eabi/4.5.1/../../../../arm-eabi/lib/thumb\libm.a(lib_a-s_floor.o)
 .ARM.attributes
                0x00000d81       0x30 c:/devkitpro/devkitarm/bin/../lib/gcc/arm-eabi/4.5.1/../../../../arm-eabi/lib/thumb\libm.a(lib_a-s_sin.o)
 .ARM.attributes
                0x00000db1       0x30 c:/devkitpro/devkitarm/bin/../lib/gcc/arm-eabi/4.5.1/../../../../arm-eabi/lib/thumb\libm.a(lib_a-s_tan.o)
 .ARM.attributes
                0x00000de1       0x30 c:/devkitpro/devkitarm/bin/../lib/gcc/arm-eabi/4.5.1/../../../../arm-eabi/lib/thumb\libm.a(lib_a-w_sqrt.o)
 .ARM.attributes
                0x00000e11       0x30 c:/devkitpro/devkitarm/bin/../lib/gcc/arm-eabi/4.5.1/../../../../arm-eabi/lib/thumb\libm.a(lib_a-e_rem_pio2.o)
 .ARM.attributes
                0x00000e41       0x30 c:/devkitpro/devkitarm/bin/../lib/gcc/arm-eabi/4.5.1/../../../../arm-eabi/lib/thumb\libm.a(lib_a-e_sqrt.o)
 .ARM.attributes
                0x00000e71       0x30 c:/devkitpro/devkitarm/bin/../lib/gcc/arm-eabi/4.5.1/../../../../arm-eabi/lib/thumb\libm.a(lib_a-k_cos.o)
 .ARM.attributes
                0x00000ea1       0x30 c:/devkitpro/devkitarm/bin/../lib/gcc/arm-eabi/4.5.1/../../../../arm-eabi/lib/thumb\libm.a(lib_a-k_rem_pio2.o)
 .ARM.attributes
                0x00000ed1       0x30 c:/devkitpro/devkitarm/bin/../lib/gcc/arm-eabi/4.5.1/../../../../arm-eabi/lib/thumb\libm.a(lib_a-k_sin.o)
 .ARM.attributes
                0x00000f01       0x30 c:/devkitpro/devkitarm/bin/../lib/gcc/arm-eabi/4.5.1/../../../../arm-eabi/lib/thumb\libm.a(lib_a-k_tan.o)
 .ARM.attributes
                0x00000f31       0x30 c:/devkitpro/devkitarm/bin/../lib/gcc/arm-eabi/4.5.1/../../../../arm-eabi/lib/thumb\libm.a(lib_a-s_fabs.o)
 .ARM.attributes
                0x00000f61       0x30 c:/devkitpro/devkitarm/bin/../lib/gcc/arm-eabi/4.5.1/../../../../arm-eabi/lib/thumb\libm.a(lib_a-s_fpclassify.o)
 .ARM.attributes
                0x00000f91       0x30 c:/devkitpro/devkitarm/bin/../lib/gcc/arm-eabi/4.5.1/../../../../arm-eabi/lib/thumb\libm.a(lib_a-s_lib_ver.o)
 .ARM.attributes
                0x00000fc1       0x30 c:/devkitpro/devkitarm/bin/../lib/gcc/arm-eabi/4.5.1/../../../../arm-eabi/lib/thumb\libm.a(lib_a-s_matherr.o)
 .ARM.attributes
                0x00000ff1       0x30 c:/devkitpro/devkitarm/bin/../lib/gcc/arm-eabi/4.5.1/../../../../arm-eabi/lib/thumb\libm.a(lib_a-s_scalbn.o)
 .ARM.attributes
                0x00001021       0x30 c:/devkitpro/devkitarm/bin/../lib/gcc/arm-eabi/4.5.1/../../../../arm-eabi/lib/thumb\libm.a(lib_a-s_copysign.o)
 .ARM.attributes
                0x00001051       0x22 c:/devkitpro/devkitarm/bin/../lib/gcc/arm-eabi/4.5.1/thumb\libgcc.a(_udivsi3.o)
 .ARM.attributes
                0x00001073       0x22 c:/devkitpro/devkitarm/bin/../lib/gcc/arm-eabi/4.5.1/thumb\libgcc.a(_divsi3.o)
 .ARM.attributes
                0x00001095       0x22 c:/devkitpro/devkitarm/bin/../lib/gcc/arm-eabi/4.5.1/thumb\libgcc.a(_dvmd_tls.o)
 .ARM.attributes
                0x000010b7       0x22 c:/devkitpro/devkitarm/bin/../lib/gcc/arm-eabi/4.5.1/thumb\libgcc.a(_arm_addsubdf3.o)
 .ARM.attributes
                0x000010d9       0x22 c:/devkitpro/devkitarm/bin/../lib/gcc/arm-eabi/4.5.1/thumb\libgcc.a(_arm_muldivdf3.o)
 .ARM.attributes
                0x000010fb       0x22 c:/devkitpro/devkitarm/bin/../lib/gcc/arm-eabi/4.5.1/thumb\libgcc.a(_arm_cmpdf2.o)
 .ARM.attributes
                0x0000111d       0x22 c:/devkitpro/devkitarm/bin/../lib/gcc/arm-eabi/4.5.1/thumb\libgcc.a(_arm_fixdfsi.o)
 .ARM.attributes
                0x0000113f       0x22 c:/devkitpro/devkitarm/bin/../lib/gcc/arm-eabi/4.5.1/thumb\libgcc.a(_arm_truncdfsf2.o)
 .ARM.attributes
                0x00001161       0x22 c:/devkitpro/devkitarm/bin/../lib/gcc/arm-eabi/4.5.1/thumb\libgcc.a(_arm_addsubsf3.o)
 .ARM.attributes
                0x00001183       0x22 c:/devkitpro/devkitarm/bin/../lib/gcc/arm-eabi/4.5.1/thumb\libgcc.a(_arm_muldivsf3.o)
 .ARM.attributes
                0x000011a5       0x22 c:/devkitpro/devkitarm/bin/../lib/gcc/arm-eabi/4.5.1/thumb\libgcc.a(_arm_cmpsf2.o)
 .ARM.attributes
                0x000011c7       0x22 c:/devkitpro/devkitarm/bin/../lib/gcc/arm-eabi/4.5.1/thumb\libgcc.a(_arm_fixsfsi.o)
 .ARM.attributes
                0x000011e9       0x22 c:/devkitpro/devkitarm/bin/../lib/gcc/arm-eabi/4.5.1/thumb\libgcc.a(_arm_fixunssfsi.o)
 .ARM.attributes
                0x0000120b       0x22 c:/devkitpro/devkitarm/bin/../lib/gcc/arm-eabi/4.5.1/thumb\libgcc.a(_aeabi_ldivmod.o)
 .ARM.attributes
                0x0000122d       0x30 c:/devkitpro/devkitarm/bin/../lib/gcc/arm-eabi/4.5.1/thumb\libgcc.a(_muldi3.o)
 .ARM.attributes
                0x0000125d       0x30 c:/devkitpro/devkitarm/bin/../lib/gcc/arm-eabi/4.5.1/thumb\libgcc.a(bpabi.o)
 .ARM.attributes
                0x0000128d       0x30 c:/devkitpro/devkitarm/bin/../lib/gcc/arm-eabi/4.5.1/thumb\libgcc.a(unwind-arm.o)
 .ARM.attributes
                0x000012bd       0x1c c:/devkitpro/devkitarm/bin/../lib/gcc/arm-eabi/4.5.1/thumb\libgcc.a(libunwind.o)
 .ARM.attributes
                0x000012d9       0x30 c:/devkitpro/devkitarm/bin/../lib/gcc/arm-eabi/4.5.1/thumb\libgcc.a(pr-support.o)
 .ARM.attributes
                0x00001309       0x30 c:/devkitpro/devkitarm/bin/../lib/gcc/arm-eabi/4.5.1/thumb\libgcc.a(_divdi3.o)
 .ARM.attributes
                0x00001339       0x30 c:/devkitpro/devkitarm/bin/../lib/gcc/arm-eabi/4.5.1/thumb\libgcc.a(_udivdi3.o)
 .ARM.attributes
                0x00001369       0x22 c:/devkitpro/devkitarm/bin/../lib/gcc/arm-eabi/4.5.1/thumb\libgcc.a(_clzsi2.o)
 .ARM.attributes
                0x0000138b       0x30 c:/devkitpro/devkitarm/bin/../lib/gcc/arm-eabi/4.5.1/../../../../arm-eabi/lib/thumb\libg.a(lib_a-abort.o)
 .ARM.attributes
                0x000013bb       0x30 c:/devkitpro/devkitarm/bin/../lib/gcc/arm-eabi/4.5.1/../../../../arm-eabi/lib/thumb\libg.a(lib_a-access.o)
 .ARM.attributes
                0x000013eb       0x30 c:/devkitpro/devkitarm/bin/../lib/gcc/arm-eabi/4.5.1/../../../../arm-eabi/lib/thumb\libg.a(lib_a-atoi.o)
 .ARM.attributes
                0x0000141b       0x30 c:/devkitpro/devkitarm/bin/../lib/gcc/arm-eabi/4.5.1/../../../../arm-eabi/lib/thumb\libg.a(lib_a-bsearch.o)
 .ARM.attributes
                0x0000144b       0x30 c:/devkitpro/devkitarm/bin/../lib/gcc/arm-eabi/4.5.1/../../../../arm-eabi/lib/thumb\libg.a(lib_a-calloc.o)
 .ARM.attributes
                0x0000147b       0x30 c:/devkitpro/devkitarm/bin/../lib/gcc/arm-eabi/4.5.1/../../../../arm-eabi/lib/thumb\libg.a(lib_a-callocr.o)
 .ARM.attributes
                0x000014ab       0x30 c:/devkitpro/devkitarm/bin/../lib/gcc/arm-eabi/4.5.1/../../../../arm-eabi/lib/thumb\libg.a(lib_a-ctype_.o)
 .ARM.attributes
                0x000014db       0x30 c:/devkitpro/devkitarm/bin/../lib/gcc/arm-eabi/4.5.1/../../../../arm-eabi/lib/thumb\libg.a(lib_a-errno.o)
 .ARM.attributes
                0x0000150b       0x30 c:/devkitpro/devkitarm/bin/../lib/gcc/arm-eabi/4.5.1/../../../../arm-eabi/lib/thumb\libg.a(lib_a-exit.o)
 .ARM.attributes
                0x0000153b       0x30 c:/devkitpro/devkitarm/bin/../lib/gcc/arm-eabi/4.5.1/../../../../arm-eabi/lib/thumb\libg.a(lib_a-fclose.o)
 .ARM.attributes
                0x0000156b       0x30 c:/devkitpro/devkitarm/bin/../lib/gcc/arm-eabi/4.5.1/../../../../arm-eabi/lib/thumb\libg.a(lib_a-fflush.o)
 .ARM.attributes
                0x0000159b       0x30 c:/devkitpro/devkitarm/bin/../lib/gcc/arm-eabi/4.5.1/../../../../arm-eabi/lib/thumb\libg.a(lib_a-findfp.o)
 .ARM.attributes
                0x000015cb       0x30 c:/devkitpro/devkitarm/bin/../lib/gcc/arm-eabi/4.5.1/../../../../arm-eabi/lib/thumb\libg.a(lib_a-fopen.o)
 .ARM.attributes
                0x000015fb       0x30 c:/devkitpro/devkitarm/bin/../lib/gcc/arm-eabi/4.5.1/../../../../arm-eabi/lib/thumb\libg.a(lib_a-fprintf.o)
 .ARM.attributes
                0x0000162b       0x30 c:/devkitpro/devkitarm/bin/../lib/gcc/arm-eabi/4.5.1/../../../../arm-eabi/lib/thumb\libg.a(lib_a-fputc.o)
 .ARM.attributes
                0x0000165b       0x30 c:/devkitpro/devkitarm/bin/../lib/gcc/arm-eabi/4.5.1/../../../../arm-eabi/lib/thumb\libg.a(lib_a-fread.o)
 .ARM.attributes
                0x0000168b       0x30 c:/devkitpro/devkitarm/bin/../lib/gcc/arm-eabi/4.5.1/../../../../arm-eabi/lib/thumb\libg.a(lib_a-freer.o)
 .ARM.attributes
                0x000016bb       0x30 c:/devkitpro/devkitarm/bin/../lib/gcc/arm-eabi/4.5.1/../../../../arm-eabi/lib/thumb\libg.a(lib_a-fscanf.o)
 .ARM.attributes
                0x000016eb       0x30 c:/devkitpro/devkitarm/bin/../lib/gcc/arm-eabi/4.5.1/../../../../arm-eabi/lib/thumb\libg.a(lib_a-fseek.o)
 .ARM.attributes
                0x0000171b       0x30 c:/devkitpro/devkitarm/bin/../lib/gcc/arm-eabi/4.5.1/../../../../arm-eabi/lib/thumb\libg.a(lib_a-ftell.o)
 .ARM.attributes
                0x0000174b       0x30 c:/devkitpro/devkitarm/bin/../lib/gcc/arm-eabi/4.5.1/../../../../arm-eabi/lib/thumb\libg.a(lib_a-fwalk.o)
 .ARM.attributes
                0x0000177b       0x30 c:/devkitpro/devkitarm/bin/../lib/gcc/arm-eabi/4.5.1/../../../../arm-eabi/lib/thumb\libg.a(lib_a-fwrite.o)
 .ARM.attributes
                0x000017ab       0x30 c:/devkitpro/devkitarm/bin/../lib/gcc/arm-eabi/4.5.1/../../../../arm-eabi/lib/thumb\libg.a(lib_a-impure.o)
 .ARM.attributes
                0x000017db       0x30 c:/devkitpro/devkitarm/bin/../lib/gcc/arm-eabi/4.5.1/../../../../arm-eabi/lib/thumb\libg.a(lib_a-init.o)
 .ARM.attributes
                0x0000180b       0x30 c:/devkitpro/devkitarm/bin/../lib/gcc/arm-eabi/4.5.1/../../../../arm-eabi/lib/thumb\libg.a(lib_a-iprintf.o)
 .ARM.attributes
                0x0000183b       0x30 c:/devkitpro/devkitarm/bin/../lib/gcc/arm-eabi/4.5.1/../../../../arm-eabi/lib/thumb\libg.a(lib_a-lcltime_r.o)
 .ARM.attributes
                0x0000186b       0x30 c:/devkitpro/devkitarm/bin/../lib/gcc/arm-eabi/4.5.1/../../../../arm-eabi/lib/thumb\libg.a(lib_a-locale.o)
 .ARM.attributes
                0x0000189b       0x30 c:/devkitpro/devkitarm/bin/../lib/gcc/arm-eabi/4.5.1/../../../../arm-eabi/lib/thumb\libg.a(lib_a-makebuf.o)
 .ARM.attributes
                0x000018cb       0x30 c:/devkitpro/devkitarm/bin/../lib/gcc/arm-eabi/4.5.1/../../../../arm-eabi/lib/thumb\libg.a(lib_a-malloc.o)
 .ARM.attributes
                0x000018fb       0x30 c:/devkitpro/devkitarm/bin/../lib/gcc/arm-eabi/4.5.1/../../../../arm-eabi/lib/thumb\libg.a(lib_a-mallocr.o)
 .ARM.attributes
                0x0000192b       0x30 c:/devkitpro/devkitarm/bin/../lib/gcc/arm-eabi/4.5.1/../../../../arm-eabi/lib/thumb\libg.a(lib_a-mbrtowc.o)
 .ARM.attributes
                0x0000195b       0x30 c:/devkitpro/devkitarm/bin/../lib/gcc/arm-eabi/4.5.1/../../../../arm-eabi/lib/thumb\libg.a(lib_a-mbsrtowcs.o)
 .ARM.attributes
                0x0000198b       0x30 c:/devkitpro/devkitarm/bin/../lib/gcc/arm-eabi/4.5.1/../../../../arm-eabi/lib/thumb\libg.a(lib_a-mbtowc_r.o)
 .ARM.attributes
                0x000019bb       0x30 c:/devkitpro/devkitarm/bin/../lib/gcc/arm-eabi/4.5.1/../../../../arm-eabi/lib/thumb\libg.a(lib_a-memchr.o)
 .ARM.attributes
                0x000019eb       0x30 c:/devkitpro/devkitarm/bin/../lib/gcc/arm-eabi/4.5.1/../../../../arm-eabi/lib/thumb\libg.a(lib_a-memcmp.o)
 .ARM.attributes
                0x00001a1b       0x30 c:/devkitpro/devkitarm/bin/../lib/gcc/arm-eabi/4.5.1/../../../../arm-eabi/lib/thumb\libg.a(lib_a-memcpy.o)
 .ARM.attributes
                0x00001a4b       0x30 c:/devkitpro/devkitarm/bin/../lib/gcc/arm-eabi/4.5.1/../../../../arm-eabi/lib/thumb\libg.a(lib_a-memmove.o)
 .ARM.attributes
                0x00001a7b       0x30 c:/devkitpro/devkitarm/bin/../lib/gcc/arm-eabi/4.5.1/../../../../arm-eabi/lib/thumb\libg.a(lib_a-memset.o)
 .ARM.attributes
                0x00001aab       0x30 c:/devkitpro/devkitarm/bin/../lib/gcc/arm-eabi/4.5.1/../../../../arm-eabi/lib/thumb\libg.a(lib_a-mktime.o)
 .ARM.attributes
                0x00001adb       0x30 c:/devkitpro/devkitarm/bin/../lib/gcc/arm-eabi/4.5.1/../../../../arm-eabi/lib/thumb\libg.a(lib_a-mktm_r.o)
 .ARM.attributes
                0x00001b0b       0x30 c:/devkitpro/devkitarm/bin/../lib/gcc/arm-eabi/4.5.1/../../../../arm-eabi/lib/thumb\libg.a(lib_a-mlock.o)
 .ARM.attributes
                0x00001b3b       0x30 c:/devkitpro/devkitarm/bin/../lib/gcc/arm-eabi/4.5.1/../../../../arm-eabi/lib/thumb\libg.a(lib_a-printf.o)
 .ARM.attributes
                0x00001b6b       0x30 c:/devkitpro/devkitarm/bin/../lib/gcc/arm-eabi/4.5.1/../../../../arm-eabi/lib/thumb\libg.a(lib_a-putc.o)
 .ARM.attributes
                0x00001b9b       0x30 c:/devkitpro/devkitarm/bin/../lib/gcc/arm-eabi/4.5.1/../../../../arm-eabi/lib/thumb\libg.a(lib_a-putchar.o)
 .ARM.attributes
                0x00001bcb       0x30 c:/devkitpro/devkitarm/bin/../lib/gcc/arm-eabi/4.5.1/../../../../arm-eabi/lib/thumb\libg.a(lib_a-puts.o)
 .ARM.attributes
                0x00001bfb       0x30 c:/devkitpro/devkitarm/bin/../lib/gcc/arm-eabi/4.5.1/../../../../arm-eabi/lib/thumb\libg.a(lib_a-qsort.o)
 .ARM.attributes
                0x00001c2b       0x30 c:/devkitpro/devkitarm/bin/../lib/gcc/arm-eabi/4.5.1/../../../../arm-eabi/lib/thumb\libg.a(lib_a-realloc.o)
 .ARM.attributes
                0x00001c5b       0x30 c:/devkitpro/devkitarm/bin/../lib/gcc/arm-eabi/4.5.1/../../../../arm-eabi/lib/thumb\libg.a(lib_a-reallocr.o)
 .ARM.attributes
                0x00001c8b       0x30 c:/devkitpro/devkitarm/bin/../lib/gcc/arm-eabi/4.5.1/../../../../arm-eabi/lib/thumb\libg.a(lib_a-refill.o)
 .ARM.attributes
                0x00001cbb       0x30 c:/devkitpro/devkitarm/bin/../lib/gcc/arm-eabi/4.5.1/../../../../arm-eabi/lib/thumb\libg.a(lib_a-setbuf.o)
 .ARM.attributes
                0x00001ceb       0x30 c:/devkitpro/devkitarm/bin/../lib/gcc/arm-eabi/4.5.1/../../../../arm-eabi/lib/thumb\libg.a(lib_a-setvbuf.o)
 .ARM.attributes
                0x00001d1b       0x30 c:/devkitpro/devkitarm/bin/../lib/gcc/arm-eabi/4.5.1/../../../../arm-eabi/lib/thumb\libg.a(lib_a-signal.o)
 .ARM.attributes
                0x00001d4b       0x30 c:/devkitpro/devkitarm/bin/../lib/gcc/arm-eabi/4.5.1/../../../../arm-eabi/lib/thumb\libg.a(lib_a-siscanf.o)
 .ARM.attributes
                0x00001d7b       0x30 c:/devkitpro/devkitarm/bin/../lib/gcc/arm-eabi/4.5.1/../../../../arm-eabi/lib/thumb\libg.a(lib_a-sprintf.o)
 .ARM.attributes
                0x00001dab       0x30 c:/devkitpro/devkitarm/bin/../lib/gcc/arm-eabi/4.5.1/../../../../arm-eabi/lib/thumb\libg.a(lib_a-sscanf.o)
 .ARM.attributes
                0x00001ddb       0x30 c:/devkitpro/devkitarm/bin/../lib/gcc/arm-eabi/4.5.1/../../../../arm-eabi/lib/thumb\libg.a(lib_a-stdio.o)
 .ARM.attributes
                0x00001e0b       0x30 c:/devkitpro/devkitarm/bin/../lib/gcc/arm-eabi/4.5.1/../../../../arm-eabi/lib/thumb\libg.a(lib_a-strcasecmp.o)
 .ARM.attributes
                0x00001e3b       0x30 c:/devkitpro/devkitarm/bin/../lib/gcc/arm-eabi/4.5.1/../../../../arm-eabi/lib/thumb\libg.a(lib_a-strcat.o)
 .ARM.attributes
                0x00001e6b       0x30 c:/devkitpro/devkitarm/bin/../lib/gcc/arm-eabi/4.5.1/../../../../arm-eabi/lib/thumb\libg.a(lib_a-strchr.o)
 .ARM.attributes
                0x00001e9b       0x30 c:/devkitpro/devkitarm/bin/../lib/gcc/arm-eabi/4.5.1/../../../../arm-eabi/lib/thumb\libg.a(lib_a-strcmp.o)
 .ARM.attributes
                0x00001ecb       0x30 c:/devkitpro/devkitarm/bin/../lib/gcc/arm-eabi/4.5.1/../../../../arm-eabi/lib/thumb\libg.a(lib_a-strcpy.o)
 .ARM.attributes
                0x00001efb       0x30 c:/devkitpro/devkitarm/bin/../lib/gcc/arm-eabi/4.5.1/../../../../arm-eabi/lib/thumb\libg.a(lib_a-strlcpy.o)
 .ARM.attributes
                0x00001f2b       0x30 c:/devkitpro/devkitarm/bin/../lib/gcc/arm-eabi/4.5.1/../../../../arm-eabi/lib/thumb\libg.a(lib_a-strlen.o)
 .ARM.attributes
                0x00001f5b       0x30 c:/devkitpro/devkitarm/bin/../lib/gcc/arm-eabi/4.5.1/../../../../arm-eabi/lib/thumb\libg.a(lib_a-strncasecmp.o)
 .ARM.attributes
                0x00001f8b       0x30 c:/devkitpro/devkitarm/bin/../lib/gcc/arm-eabi/4.5.1/../../../../arm-eabi/lib/thumb\libg.a(lib_a-strncmp.o)
 .ARM.attributes
                0x00001fbb       0x30 c:/devkitpro/devkitarm/bin/../lib/gcc/arm-eabi/4.5.1/../../../../arm-eabi/lib/thumb\libg.a(lib_a-strncpy.o)
 .ARM.attributes
                0x00001feb       0x30 c:/devkitpro/devkitarm/bin/../lib/gcc/arm-eabi/4.5.1/../../../../arm-eabi/lib/thumb\libg.a(lib_a-strnlen.o)
 .ARM.attributes
                0x0000201b       0x30 c:/devkitpro/devkitarm/bin/../lib/gcc/arm-eabi/4.5.1/../../../../arm-eabi/lib/thumb\libg.a(lib_a-strpbrk.o)
 .ARM.attributes
                0x0000204b       0x30 c:/devkitpro/devkitarm/bin/../lib/gcc/arm-eabi/4.5.1/../../../../arm-eabi/lib/thumb\libg.a(lib_a-strrchr.o)
 .ARM.attributes
                0x0000207b       0x30 c:/devkitpro/devkitarm/bin/../lib/gcc/arm-eabi/4.5.1/../../../../arm-eabi/lib/thumb\libg.a(lib_a-strtol.o)
 .ARM.attributes
                0x000020ab       0x30 c:/devkitpro/devkitarm/bin/../lib/gcc/arm-eabi/4.5.1/../../../../arm-eabi/lib/thumb\libg.a(lib_a-strupr.o)
 .ARM.attributes
                0x000020db       0x30 c:/devkitpro/devkitarm/bin/../lib/gcc/arm-eabi/4.5.1/../../../../arm-eabi/lib/thumb\libg.a(lib_a-svfiscanf.o)
 .ARM.attributes
                0x0000210b       0x30 c:/devkitpro/devkitarm/bin/../lib/gcc/arm-eabi/4.5.1/../../../../arm-eabi/lib/thumb\libg.a(lib_a-svfprintf.o)
 .ARM.attributes
                0x0000213b       0x30 c:/devkitpro/devkitarm/bin/../lib/gcc/arm-eabi/4.5.1/../../../../arm-eabi/lib/thumb\libg.a(lib_a-svfscanf.o)
 .ARM.attributes
                0x0000216b       0x30 c:/devkitpro/devkitarm/bin/../lib/gcc/arm-eabi/4.5.1/../../../../arm-eabi/lib/thumb\libg.a(lib_a-sysclose.o)
 .ARM.attributes
                0x0000219b       0x30 c:/devkitpro/devkitarm/bin/../lib/gcc/arm-eabi/4.5.1/../../../../arm-eabi/lib/thumb\libg.a(lib_a-sysfstat.o)
 .ARM.attributes
                0x000021cb       0x30 c:/devkitpro/devkitarm/bin/../lib/gcc/arm-eabi/4.5.1/../../../../arm-eabi/lib/thumb\libg.a(lib_a-syslseek.o)
 .ARM.attributes
                0x000021fb       0x30 c:/devkitpro/devkitarm/bin/../lib/gcc/arm-eabi/4.5.1/../../../../arm-eabi/lib/thumb\libg.a(lib_a-sysopen.o)
 .ARM.attributes
                0x0000222b       0x30 c:/devkitpro/devkitarm/bin/../lib/gcc/arm-eabi/4.5.1/../../../../arm-eabi/lib/thumb\libg.a(lib_a-sysread.o)
 .ARM.attributes
                0x0000225b       0x30 c:/devkitpro/devkitarm/bin/../lib/gcc/arm-eabi/4.5.1/../../../../arm-eabi/lib/thumb\libg.a(lib_a-sysstat.o)
 .ARM.attributes
                0x0000228b       0x30 c:/devkitpro/devkitarm/bin/../lib/gcc/arm-eabi/4.5.1/../../../../arm-eabi/lib/thumb\libg.a(lib_a-syswrite.o)
 .ARM.attributes
                0x000022bb       0x30 c:/devkitpro/devkitarm/bin/../lib/gcc/arm-eabi/4.5.1/../../../../arm-eabi/lib/thumb\libg.a(lib_a-time.o)
 .ARM.attributes
                0x000022eb       0x30 c:/devkitpro/devkitarm/bin/../lib/gcc/arm-eabi/4.5.1/../../../../arm-eabi/lib/thumb\libg.a(lib_a-towlower.o)
 .ARM.attributes
                0x0000231b       0x30 c:/devkitpro/devkitarm/bin/../lib/gcc/arm-eabi/4.5.1/../../../../arm-eabi/lib/thumb\libg.a(lib_a-towupper.o)
 .ARM.attributes
                0x0000234b       0x30 c:/devkitpro/devkitarm/bin/../lib/gcc/arm-eabi/4.5.1/../../../../arm-eabi/lib/thumb\libg.a(lib_a-tzlock.o)
 .ARM.attributes
                0x0000237b       0x30 c:/devkitpro/devkitarm/bin/../lib/gcc/arm-eabi/4.5.1/../../../../arm-eabi/lib/thumb\libg.a(lib_a-tzvars.o)
 .ARM.attributes
                0x000023ab       0x30 c:/devkitpro/devkitarm/bin/../lib/gcc/arm-eabi/4.5.1/../../../../arm-eabi/lib/thumb\libg.a(lib_a-ungetc.o)
 .ARM.attributes
                0x000023db       0x30 c:/devkitpro/devkitarm/bin/../lib/gcc/arm-eabi/4.5.1/../../../../arm-eabi/lib/thumb\libg.a(lib_a-vfiprintf.o)
 .ARM.attributes
                0x0000240b       0x30 c:/devkitpro/devkitarm/bin/../lib/gcc/arm-eabi/4.5.1/../../../../arm-eabi/lib/thumb\libg.a(lib_a-vfprintf.o)
 .ARM.attributes
                0x0000243b       0x30 c:/devkitpro/devkitarm/bin/../lib/gcc/arm-eabi/4.5.1/../../../../arm-eabi/lib/thumb\libg.a(lib_a-vfscanf.o)
 .ARM.attributes
                0x0000246b       0x30 c:/devkitpro/devkitarm/bin/../lib/gcc/arm-eabi/4.5.1/../../../../arm-eabi/lib/thumb\libg.a(lib_a-vprintf.o)
 .ARM.attributes
                0x0000249b       0x30 c:/devkitpro/devkitarm/bin/../lib/gcc/arm-eabi/4.5.1/../../../../arm-eabi/lib/thumb\libg.a(lib_a-wbuf.o)
 .ARM.attributes
                0x000024cb       0x30 c:/devkitpro/devkitarm/bin/../lib/gcc/arm-eabi/4.5.1/../../../../arm-eabi/lib/thumb\libg.a(lib_a-wcrtomb.o)
 .ARM.attributes
                0x000024fb       0x30 c:/devkitpro/devkitarm/bin/../lib/gcc/arm-eabi/4.5.1/../../../../arm-eabi/lib/thumb\libg.a(lib_a-wcsrtombs.o)
 .ARM.attributes
                0x0000252b       0x30 c:/devkitpro/devkitarm/bin/../lib/gcc/arm-eabi/4.5.1/../../../../arm-eabi/lib/thumb\libg.a(lib_a-wctob.o)
 .ARM.attributes
                0x0000255b       0x30 c:/devkitpro/devkitarm/bin/../lib/gcc/arm-eabi/4.5.1/../../../../arm-eabi/lib/thumb\libg.a(lib_a-wctomb_r.o)
 .ARM.attributes
                0x0000258b       0x30 c:/devkitpro/devkitarm/bin/../lib/gcc/arm-eabi/4.5.1/../../../../arm-eabi/lib/thumb\libg.a(lib_a-wsetup.o)
 .ARM.attributes
                0x000025bb       0x30 c:/devkitpro/devkitarm/bin/../lib/gcc/arm-eabi/4.5.1/../../../../arm-eabi/lib/thumb\libg.a(lib_a-__call_atexit.o)
 .ARM.attributes
                0x000025eb       0x30 c:/devkitpro/devkitarm/bin/../lib/gcc/arm-eabi/4.5.1/../../../../arm-eabi/lib/thumb\libg.a(lib_a-div.o)
 .ARM.attributes
                0x0000261b       0x30 c:/devkitpro/devkitarm/bin/../lib/gcc/arm-eabi/4.5.1/../../../../arm-eabi/lib/thumb\libg.a(lib_a-dtoa.o)
 .ARM.attributes
                0x0000264b       0x30 c:/devkitpro/devkitarm/bin/../lib/gcc/arm-eabi/4.5.1/../../../../arm-eabi/lib/thumb\libg.a(lib_a-flags.o)
 .ARM.attributes
                0x0000267b       0x30 c:/devkitpro/devkitarm/bin/../lib/gcc/arm-eabi/4.5.1/../../../../arm-eabi/lib/thumb\libg.a(lib_a-fputwc.o)
 .ARM.attributes
                0x000026ab       0x30 c:/devkitpro/devkitarm/bin/../lib/gcc/arm-eabi/4.5.1/../../../../arm-eabi/lib/thumb\libg.a(lib_a-fvwrite.o)
 .ARM.attributes
                0x000026db       0x30 c:/devkitpro/devkitarm/bin/../lib/gcc/arm-eabi/4.5.1/../../../../arm-eabi/lib/thumb\libg.a(lib_a-getenv_r.o)
 .ARM.attributes
                0x0000270b       0x30 c:/devkitpro/devkitarm/bin/../lib/gcc/arm-eabi/4.5.1/../../../../arm-eabi/lib/thumb\libg.a(lib_a-gettzinfo.o)
 .ARM.attributes
                0x0000273b       0x30 c:/devkitpro/devkitarm/bin/../lib/gcc/arm-eabi/4.5.1/../../../../arm-eabi/lib/thumb\libg.a(lib_a-iswspace.o)
 .ARM.attributes
                0x0000276b       0x30 c:/devkitpro/devkitarm/bin/../lib/gcc/arm-eabi/4.5.1/../../../../arm-eabi/lib/thumb\libg.a(lib_a-jp2uc.o)
 .ARM.attributes
                0x0000279b       0x30 c:/devkitpro/devkitarm/bin/../lib/gcc/arm-eabi/4.5.1/../../../../arm-eabi/lib/thumb\libg.a(lib_a-mbsnrtowcs.o)
 .ARM.attributes
                0x000027cb       0x30 c:/devkitpro/devkitarm/bin/../lib/gcc/arm-eabi/4.5.1/../../../../arm-eabi/lib/thumb\libg.a(lib_a-mprec.o)
 .ARM.attributes
                0x000027fb       0x30 c:/devkitpro/devkitarm/bin/../lib/gcc/arm-eabi/4.5.1/../../../../arm-eabi/lib/thumb\libg.a(lib_a-sccl.o)
 .ARM.attributes
                0x0000282b       0x30 c:/devkitpro/devkitarm/bin/../lib/gcc/arm-eabi/4.5.1/../../../../arm-eabi/lib/thumb\libg.a(lib_a-sf_nan.o)
 .ARM.attributes
                0x0000285b       0x30 c:/devkitpro/devkitarm/bin/../lib/gcc/arm-eabi/4.5.1/../../../../arm-eabi/lib/thumb\libg.a(lib_a-strtod.o)
 .ARM.attributes
                0x0000288b       0x30 c:/devkitpro/devkitarm/bin/../lib/gcc/arm-eabi/4.5.1/../../../../arm-eabi/lib/thumb\libg.a(lib_a-strtoll_r.o)
 .ARM.attributes
                0x000028bb       0x30 c:/devkitpro/devkitarm/bin/../lib/gcc/arm-eabi/4.5.1/../../../../arm-eabi/lib/thumb\libg.a(lib_a-strtoul.o)
 .ARM.attributes
                0x000028eb       0x30 c:/devkitpro/devkitarm/bin/../lib/gcc/arm-eabi/4.5.1/../../../../arm-eabi/lib/thumb\libg.a(lib_a-strtoull_r.o)
 .ARM.attributes
                0x0000291b       0x30 c:/devkitpro/devkitarm/bin/../lib/gcc/arm-eabi/4.5.1/../../../../arm-eabi/lib/thumb\libg.a(lib_a-svfiprintf.o)
 .ARM.attributes
                0x0000294b       0x30 c:/devkitpro/devkitarm/bin/../lib/gcc/arm-eabi/4.5.1/../../../../arm-eabi/lib/thumb\libg.a(lib_a-wcsnrtombs.o)
 .ARM.attributes
                0x0000297b       0x30 c:/devkitpro/devkitarm/bin/../lib/gcc/arm-eabi/4.5.1/../../../../arm-eabi/lib/thumb\libg.a(lib_a-environ.o)
 .ARM.attributes
                0x000029ab       0x30 c:/devkitpro/devkitarm/bin/../lib/gcc/arm-eabi/4.5.1/../../../../arm-eabi/lib/thumb\libg.a(lib_a-envlock.o)
 .ARM.attributes
                0x000029db       0x30 c:/devkitpro/devkitarm/bin/../lib/gcc/arm-eabi/4.5.1/../../../../arm-eabi/lib/thumb\libg.a(lib_a-gdtoa-gethex.o)
 .ARM.attributes
                0x00002a0b       0x30 c:/devkitpro/devkitarm/bin/../lib/gcc/arm-eabi/4.5.1/../../../../arm-eabi/lib/thumb\libg.a(lib_a-gdtoa-hexnan.o)
 .ARM.attributes
                0x00002a3b       0x30 c:/devkitpro/devkitarm/bin/../lib/gcc/arm-eabi/4.5.1/../../../../arm-eabi/lib/thumb\libsysbase.a(iosupport.o)
 .ARM.attributes
                0x00002a6b       0x30 c:/devkitpro/devkitarm/bin/../lib/gcc/arm-eabi/4.5.1/../../../../arm-eabi/lib/thumb\libsysbase.a(close.o)
 .ARM.attributes
                0x00002a9b       0x30 c:/devkitpro/devkitarm/bin/../lib/gcc/arm-eabi/4.5.1/../../../../arm-eabi/lib/thumb\libsysbase.a(fstat.o)
 .ARM.attributes
                0x00002acb       0x30 c:/devkitpro/devkitarm/bin/../lib/gcc/arm-eabi/4.5.1/../../../../arm-eabi/lib/thumb\libsysbase.a(getpid.o)
 .ARM.attributes
                0x00002afb       0x30 c:/devkitpro/devkitarm/bin/../lib/gcc/arm-eabi/4.5.1/../../../../arm-eabi/lib/thumb\libsysbase.a(isatty.o)
 .ARM.attributes
                0x00002b2b       0x30 c:/devkitpro/devkitarm/bin/../lib/gcc/arm-eabi/4.5.1/../../../../arm-eabi/lib/thumb\libsysbase.a(kill.o)
 .ARM.attributes
                0x00002b5b       0x30 c:/devkitpro/devkitarm/bin/../lib/gcc/arm-eabi/4.5.1/../../../../arm-eabi/lib/thumb\libsysbase.a(lseek.o)
 .ARM.attributes
                0x00002b8b       0x30 c:/devkitpro/devkitarm/bin/../lib/gcc/arm-eabi/4.5.1/../../../../arm-eabi/lib/thumb\libsysbase.a(open.o)
 .ARM.attributes
                0x00002bbb       0x30 c:/devkitpro/devkitarm/bin/../lib/gcc/arm-eabi/4.5.1/../../../../arm-eabi/lib/thumb\libsysbase.a(read.o)
 .ARM.attributes
                0x00002beb       0x30 c:/devkitpro/devkitarm/bin/../lib/gcc/arm-eabi/4.5.1/../../../../arm-eabi/lib/thumb\libsysbase.a(sbrk.o)
 .ARM.attributes
                0x00002c1b       0x30 c:/devkitpro/devkitarm/bin/../lib/gcc/arm-eabi/4.5.1/../../../../arm-eabi/lib/thumb\libsysbase.a(stat.o)
 .ARM.attributes
                0x00002c4b       0x30 c:/devkitpro/devkitarm/bin/../lib/gcc/arm-eabi/4.5.1/../../../../arm-eabi/lib/thumb\libsysbase.a(times.o)
 .ARM.attributes
                0x00002c7b       0x30 c:/devkitpro/devkitarm/bin/../lib/gcc/arm-eabi/4.5.1/../../../../arm-eabi/lib/thumb\libsysbase.a(write.o)
 .ARM.attributes
                0x00002cab       0x30 c:/devkitpro/devkitarm/bin/../lib/gcc/arm-eabi/4.5.1/../../../../arm-eabi/lib/thumb\libsysbase.a(_exit.o)
 .ARM.attributes
                0x00002cdb       0x30 c:/devkitpro/devkitarm/bin/../lib/gcc/arm-eabi/4.5.1/../../../../arm-eabi/lib/thumb\libsysbase.a(malloc_vars.o)
 .ARM.attributes
                0x00002d0b       0x30 c:/devkitpro/devkitarm/bin/../lib/gcc/arm-eabi/4.5.1/../../../../arm-eabi/lib/thumb\libsysbase.a(chdir.o)
 .ARM.attributes
                0x00002d3b       0x30 c:/devkitpro/devkitarm/bin/../lib/gcc/arm-eabi/4.5.1/../../../../arm-eabi/lib/thumb\libsysbase.a(build_argv.o)
 .ARM.attributes
                0x00002d6b       0x30 c:/devkitpro/devkitarm/bin/../lib/gcc/arm-eabi/4.5.1/../../../../arm-eabi/lib/thumb\libsysbase.a(syscall_support.o)
 .ARM.attributes
                0x00002d9b       0x30 c:/devkitpro/devkitarm/bin/../lib/gcc/arm-eabi/4.5.1/../../../../arm-eabi/lib/thumb\libsysbase.a(handle_manager.o)
 .ARM.attributes
                0x00002dcb       0x22 c:/devkitpro/devkitarm/bin/../lib/gcc/arm-eabi/4.5.1/thumb\libgcc.a(_arm_fixunsdfsi.o)
 .ARM.attributes
                0x00002ded       0x22 c:/devkitpro/devkitarm/bin/../lib/gcc/arm-eabi/4.5.1/thumb\libgcc.a(_aeabi_uldivmod.o)
 .ARM.attributes
                0x00002e0f       0x30 c:/devkitpro/devkitarm/bin/../lib/gcc/arm-eabi/4.5.1/thumb/crtend.o
 .ARM.attributes
                0x00002e3f       0x20 c:/devkitpro/devkitarm/bin/../lib/gcc/arm-eabi/4.5.1/thumb/crtn.o

.comment        0x00000000       0x22 load address 0x0208750c
 *(.comment)
 .comment       0x00000000       0x22 c:/devkitpro/devkitarm/bin/../lib/gcc/arm-eabi/4.5.1/thumb/crtbegin.o
                                 0x23 (size before relaxing)
 .comment       0x00000000       0x23 ds_render.o
 .comment       0x00000000       0x23 glMain.o
 .comment       0x00000000       0x23 template.o
 .comment       0x00000000       0x23 AM_MAP.o
 .comment       0x00000000       0x23 CT_CHAT.o
 .comment       0x00000000       0x23 D_MAIN.o
 .comment       0x00000000       0x23 D_NET.o
 .comment       0x00000000       0x23 F_FINALE.o
 .comment       0x00000000       0x23 G_GAME.o
 .comment       0x00000000       0x23 INFO.o
 .comment       0x00000000       0x23 IN_LUDE.o
 .comment       0x00000000       0x23 I_IBM.o
 .comment       0x00000000       0x23 I_SOUND.o
 .comment       0x00000000       0x23 MN_MENU.o
 .comment       0x00000000       0x23 M_MISC.o
 .comment       0x00000000       0x23 P_CEILNG.o
 .comment       0x00000000       0x23 P_DOORS.o
 .comment       0x00000000       0x23 P_ENEMY.o
 .comment       0x00000000       0x23 P_FLOOR.o
 .comment       0x00000000       0x23 P_INTER.o
 .comment       0x00000000       0x23 P_LIGHTS.o
 .comment       0x00000000       0x23 P_MAP.o
 .comment       0x00000000       0x23 P_MAPUTL.o
 .comment       0x00000000       0x23 P_MOBJ.o
 .comment       0x00000000       0x23 P_PLATS.o
 .comment       0x00000000       0x23 P_PSPR.o
 .comment       0x00000000       0x23 P_SETUP.o
 .comment       0x00000000       0x23 P_SIGHT.o
 .comment       0x00000000       0x23 P_SPEC.o
 .comment       0x00000000       0x23 P_SWITCH.o
 .comment       0x00000000       0x23 P_TELEPT.o
 .comment       0x00000000       0x23 P_TICK.o
 .comment       0x00000000       0x23 P_USER.o
 .comment       0x00000000       0x23 R_DATA.o
 .comment       0x00000000       0x23 R_MAIN.o
 .comment       0x00000000       0x23 R_THINGS.o
 .comment       0x00000000       0x23 SB_BAR.o
 .comment       0x00000000       0x23 SOUNDS.o
 .comment       0x00000000       0x23 TABLES.o
 .comment       0x00000000       0x23 V_VIDEO.o
 .comment       0x00000000       0x23 W_WAD.o
 .comment       0x00000000       0x23 Z_ZONE.o
 .comment       0x00000000       0x23 ds_textures.o
 .comment       0x00000000       0x23 geometry.o
 .comment       0x00000000       0x23 polylib.o
 .comment       0x00000000       0x23 soundst.o
 .comment       0x00000000       0x23 c:/devkitPro/libnds/lib\libfat.a(libfat.o)
 .comment       0x00000000       0x23 c:/devkitPro/libnds/lib\libfat.a(partition.o)
 .comment       0x00000000       0x23 c:/devkitPro/libnds/lib\libfat.a(cache.o)
 .comment       0x00000000       0x23 c:/devkitPro/libnds/lib\libfat.a(directory.o)
 .comment       0x00000000       0x23 c:/devkitPro/libnds/lib\libfat.a(disc.o)
 .comment       0x00000000       0x23 c:/devkitPro/libnds/lib\libfat.a(fatdir.o)
 .comment       0x00000000       0x23 c:/devkitPro/libnds/lib\libfat.a(fatfile.o)
 .comment       0x00000000       0x23 c:/devkitPro/libnds/lib\libfat.a(file_allocation_table.o)
 .comment       0x00000000       0x23 c:/devkitPro/libnds/lib\libfat.a(filetime.o)
 .comment       0x00000000       0x23 c:/devkitPro/libnds/lib\libfat.a(lock.o)
 .comment       0x00000000       0x23 c:/devkitPro/libnds/lib\libnds9.a(background.o)
 .comment       0x00000000       0x23 c:/devkitPro/libnds/lib\libnds9.a(console.o)
 .comment       0x00000000       0x23 c:/devkitPro/libnds/lib\libnds9.a(gurumeditation.o)
 .comment       0x00000000       0x23 c:/devkitPro/libnds/lib\libnds9.a(keys.o)
 .comment       0x00000000       0x23 c:/devkitPro/libnds/lib\libnds9.a(sassert.o)
 .comment       0x00000000       0x23 c:/devkitPro/libnds/lib\libnds9.a(sound.o)
 .comment       0x00000000       0x23 c:/devkitPro/libnds/lib\libnds9.a(touch.o)
 .comment       0x00000000       0x23 c:/devkitPro/libnds/lib\libnds9.a(trig.o)
 .comment       0x00000000       0x23 c:/devkitPro/libnds/lib\libnds9.a(video.o)
 .comment       0x00000000       0x23 c:/devkitPro/libnds/lib\libnds9.a(videoGL.o)
 .comment       0x00000000       0x23 c:/devkitPro/libnds/lib\libnds9.a(dldi.o)
 .comment       0x00000000       0x23 c:/devkitPro/libnds/lib\libnds9.a(dsi_sd.o)
 .comment       0x00000000       0x23 c:/devkitPro/libnds/lib\libnds9.a(initSystem.o)
 .comment       0x00000000       0x23 c:/devkitPro/libnds/lib\libnds9.a(fifosystem.o)
 .comment       0x00000000       0x23 c:/devkitPro/libnds/lib\libnds9.a(interrupts.o)
 .comment       0x00000000       0x23 c:/devkitPro/libnds/lib\libnds9.a(libnds_exit.o)
 .comment       0x00000000       0x23 c:/devkitPro/libnds/lib\libnds9.a(dynamicArray.o)
 .comment       0x00000000       0x23 c:/devkitPro/libnds/lib\libnds9.a(exceptions.o)
 .comment       0x00000000       0x23 c:/devkitPro/libnds/lib\libnds9.a(system.o)
 .comment       0x00000000       0x23 c:/devkitpro/devkitarm/bin/../lib/gcc/arm-eabi/4.5.1/../../../../arm-eabi/lib/thumb\libm.a(lib_a-s_ceil.o)
 .comment       0x00000000       0x23 c:/devkitpro/devkitarm/bin/../lib/gcc/arm-eabi/4.5.1/../../../../arm-eabi/lib/thumb\libm.a(lib_a-s_cos.o)
 .comment       0x00000000       0x23 c:/devkitpro/devkitarm/bin/../lib/gcc/arm-eabi/4.5.1/../../../../arm-eabi/lib/thumb\libm.a(lib_a-s_floor.o)
 .comment       0x00000000       0x23 c:/devkitpro/devkitarm/bin/../lib/gcc/arm-eabi/4.5.1/../../../../arm-eabi/lib/thumb\libm.a(lib_a-s_sin.o)
 .comment       0x00000000       0x23 c:/devkitpro/devkitarm/bin/../lib/gcc/arm-eabi/4.5.1/../../../../arm-eabi/lib/thumb\libm.a(lib_a-s_tan.o)
 .comment       0x00000000       0x23 c:/devkitpro/devkitarm/bin/../lib/gcc/arm-eabi/4.5.1/../../../../arm-eabi/lib/thumb\libm.a(lib_a-w_sqrt.o)
 .comment       0x00000000       0x23 c:/devkitpro/devkitarm/bin/../lib/gcc/arm-eabi/4.5.1/../../../../arm-eabi/lib/thumb\libm.a(lib_a-e_rem_pio2.o)
 .comment       0x00000000       0x23 c:/devkitpro/devkitarm/bin/../lib/gcc/arm-eabi/4.5.1/../../../../arm-eabi/lib/thumb\libm.a(lib_a-e_sqrt.o)
 .comment       0x00000000       0x23 c:/devkitpro/devkitarm/bin/../lib/gcc/arm-eabi/4.5.1/../../../../arm-eabi/lib/thumb\libm.a(lib_a-k_cos.o)
 .comment       0x00000000       0x23 c:/devkitpro/devkitarm/bin/../lib/gcc/arm-eabi/4.5.1/../../../../arm-eabi/lib/thumb\libm.a(lib_a-k_rem_pio2.o)
 .comment       0x00000000       0x23 c:/devkitpro/devkitarm/bin/../lib/gcc/arm-eabi/4.5.1/../../../../arm-eabi/lib/thumb\libm.a(lib_a-k_sin.o)
 .comment       0x00000000       0x23 c:/devkitpro/devkitarm/bin/../lib/gcc/arm-eabi/4.5.1/../../../../arm-eabi/lib/thumb\libm.a(lib_a-k_tan.o)
 .comment       0x00000000       0x23 c:/devkitpro/devkitarm/bin/../lib/gcc/arm-eabi/4.5.1/../../../../arm-eabi/lib/thumb\libm.a(lib_a-s_fabs.o)
 .comment       0x00000000       0x23 c:/devkitpro/devkitarm/bin/../lib/gcc/arm-eabi/4.5.1/../../../../arm-eabi/lib/thumb\libm.a(lib_a-s_fpclassify.o)
 .comment       0x00000000       0x23 c:/devkitpro/devkitarm/bin/../lib/gcc/arm-eabi/4.5.1/../../../../arm-eabi/lib/thumb\libm.a(lib_a-s_lib_ver.o)
 .comment       0x00000000       0x23 c:/devkitpro/devkitarm/bin/../lib/gcc/arm-eabi/4.5.1/../../../../arm-eabi/lib/thumb\libm.a(lib_a-s_matherr.o)
 .comment       0x00000000       0x23 c:/devkitpro/devkitarm/bin/../lib/gcc/arm-eabi/4.5.1/../../../../arm-eabi/lib/thumb\libm.a(lib_a-s_scalbn.o)
 .comment       0x00000000       0x23 c:/devkitpro/devkitarm/bin/../lib/gcc/arm-eabi/4.5.1/../../../../arm-eabi/lib/thumb\libm.a(lib_a-s_copysign.o)
 .comment       0x00000000       0x23 c:/devkitpro/devkitarm/bin/../lib/gcc/arm-eabi/4.5.1/thumb\libgcc.a(_muldi3.o)
 .comment       0x00000000       0x23 c:/devkitpro/devkitarm/bin/../lib/gcc/arm-eabi/4.5.1/thumb\libgcc.a(bpabi.o)
 .comment       0x00000000       0x23 c:/devkitpro/devkitarm/bin/../lib/gcc/arm-eabi/4.5.1/thumb\libgcc.a(unwind-arm.o)
 .comment       0x00000000       0x23 c:/devkitpro/devkitarm/bin/../lib/gcc/arm-eabi/4.5.1/thumb\libgcc.a(pr-support.o)
 .comment       0x00000000       0x23 c:/devkitpro/devkitarm/bin/../lib/gcc/arm-eabi/4.5.1/thumb\libgcc.a(_divdi3.o)
 .comment       0x00000000       0x23 c:/devkitpro/devkitarm/bin/../lib/gcc/arm-eabi/4.5.1/thumb\libgcc.a(_udivdi3.o)
 .comment       0x00000000       0x23 c:/devkitpro/devkitarm/bin/../lib/gcc/arm-eabi/4.5.1/../../../../arm-eabi/lib/thumb\libg.a(lib_a-abort.o)
 .comment       0x00000000       0x23 c:/devkitpro/devkitarm/bin/../lib/gcc/arm-eabi/4.5.1/../../../../arm-eabi/lib/thumb\libg.a(lib_a-access.o)
 .comment       0x00000000       0x23 c:/devkitpro/devkitarm/bin/../lib/gcc/arm-eabi/4.5.1/../../../../arm-eabi/lib/thumb\libg.a(lib_a-atoi.o)
 .comment       0x00000000       0x23 c:/devkitpro/devkitarm/bin/../lib/gcc/arm-eabi/4.5.1/../../../../arm-eabi/lib/thumb\libg.a(lib_a-bsearch.o)
 .comment       0x00000000       0x23 c:/devkitpro/devkitarm/bin/../lib/gcc/arm-eabi/4.5.1/../../../../arm-eabi/lib/thumb\libg.a(lib_a-calloc.o)
 .comment       0x00000000       0x23 c:/devkitpro/devkitarm/bin/../lib/gcc/arm-eabi/4.5.1/../../../../arm-eabi/lib/thumb\libg.a(lib_a-callocr.o)
 .comment       0x00000000       0x23 c:/devkitpro/devkitarm/bin/../lib/gcc/arm-eabi/4.5.1/../../../../arm-eabi/lib/thumb\libg.a(lib_a-ctype_.o)
 .comment       0x00000000       0x23 c:/devkitpro/devkitarm/bin/../lib/gcc/arm-eabi/4.5.1/../../../../arm-eabi/lib/thumb\libg.a(lib_a-errno.o)
 .comment       0x00000000       0x23 c:/devkitpro/devkitarm/bin/../lib/gcc/arm-eabi/4.5.1/../../../../arm-eabi/lib/thumb\libg.a(lib_a-exit.o)
 .comment       0x00000000       0x23 c:/devkitpro/devkitarm/bin/../lib/gcc/arm-eabi/4.5.1/../../../../arm-eabi/lib/thumb\libg.a(lib_a-fclose.o)
 .comment       0x00000000       0x23 c:/devkitpro/devkitarm/bin/../lib/gcc/arm-eabi/4.5.1/../../../../arm-eabi/lib/thumb\libg.a(lib_a-fflush.o)
 .comment       0x00000000       0x23 c:/devkitpro/devkitarm/bin/../lib/gcc/arm-eabi/4.5.1/../../../../arm-eabi/lib/thumb\libg.a(lib_a-findfp.o)
 .comment       0x00000000       0x23 c:/devkitpro/devkitarm/bin/../lib/gcc/arm-eabi/4.5.1/../../../../arm-eabi/lib/thumb\libg.a(lib_a-fopen.o)
 .comment       0x00000000       0x23 c:/devkitpro/devkitarm/bin/../lib/gcc/arm-eabi/4.5.1/../../../../arm-eabi/lib/thumb\libg.a(lib_a-fprintf.o)
 .comment       0x00000000       0x23 c:/devkitpro/devkitarm/bin/../lib/gcc/arm-eabi/4.5.1/../../../../arm-eabi/lib/thumb\libg.a(lib_a-fputc.o)
 .comment       0x00000000       0x23 c:/devkitpro/devkitarm/bin/../lib/gcc/arm-eabi/4.5.1/../../../../arm-eabi/lib/thumb\libg.a(lib_a-fread.o)
 .comment       0x00000000       0x23 c:/devkitpro/devkitarm/bin/../lib/gcc/arm-eabi/4.5.1/../../../../arm-eabi/lib/thumb\libg.a(lib_a-freer.o)
 .comment       0x00000000       0x23 c:/devkitpro/devkitarm/bin/../lib/gcc/arm-eabi/4.5.1/../../../../arm-eabi/lib/thumb\libg.a(lib_a-fscanf.o)
 .comment       0x00000000       0x23 c:/devkitpro/devkitarm/bin/../lib/gcc/arm-eabi/4.5.1/../../../../arm-eabi/lib/thumb\libg.a(lib_a-fseek.o)
 .comment       0x00000000       0x23 c:/devkitpro/devkitarm/bin/../lib/gcc/arm-eabi/4.5.1/../../../../arm-eabi/lib/thumb\libg.a(lib_a-ftell.o)
 .comment       0x00000000       0x23 c:/devkitpro/devkitarm/bin/../lib/gcc/arm-eabi/4.5.1/../../../../arm-eabi/lib/thumb\libg.a(lib_a-fwalk.o)
 .comment       0x00000000       0x23 c:/devkitpro/devkitarm/bin/../lib/gcc/arm-eabi/4.5.1/../../../../arm-eabi/lib/thumb\libg.a(lib_a-fwrite.o)
 .comment       0x00000000       0x23 c:/devkitpro/devkitarm/bin/../lib/gcc/arm-eabi/4.5.1/../../../../arm-eabi/lib/thumb\libg.a(lib_a-impure.o)
 .comment       0x00000000       0x23 c:/devkitpro/devkitarm/bin/../lib/gcc/arm-eabi/4.5.1/../../../../arm-eabi/lib/thumb\libg.a(lib_a-init.o)
 .comment       0x00000000       0x23 c:/devkitpro/devkitarm/bin/../lib/gcc/arm-eabi/4.5.1/../../../../arm-eabi/lib/thumb\libg.a(lib_a-iprintf.o)
 .comment       0x00000000       0x23 c:/devkitpro/devkitarm/bin/../lib/gcc/arm-eabi/4.5.1/../../../../arm-eabi/lib/thumb\libg.a(lib_a-lcltime_r.o)
 .comment       0x00000000       0x23 c:/devkitpro/devkitarm/bin/../lib/gcc/arm-eabi/4.5.1/../../../../arm-eabi/lib/thumb\libg.a(lib_a-locale.o)
 .comment       0x00000000       0x23 c:/devkitpro/devkitarm/bin/../lib/gcc/arm-eabi/4.5.1/../../../../arm-eabi/lib/thumb\libg.a(lib_a-makebuf.o)
 .comment       0x00000000       0x23 c:/devkitpro/devkitarm/bin/../lib/gcc/arm-eabi/4.5.1/../../../../arm-eabi/lib/thumb\libg.a(lib_a-malloc.o)
 .comment       0x00000000       0x23 c:/devkitpro/devkitarm/bin/../lib/gcc/arm-eabi/4.5.1/../../../../arm-eabi/lib/thumb\libg.a(lib_a-mallocr.o)
 .comment       0x00000000       0x23 c:/devkitpro/devkitarm/bin/../lib/gcc/arm-eabi/4.5.1/../../../../arm-eabi/lib/thumb\libg.a(lib_a-mbrtowc.o)
 .comment       0x00000000       0x23 c:/devkitpro/devkitarm/bin/../lib/gcc/arm-eabi/4.5.1/../../../../arm-eabi/lib/thumb\libg.a(lib_a-mbsrtowcs.o)
 .comment       0x00000000       0x23 c:/devkitpro/devkitarm/bin/../lib/gcc/arm-eabi/4.5.1/../../../../arm-eabi/lib/thumb\libg.a(lib_a-mbtowc_r.o)
 .comment       0x00000000       0x23 c:/devkitpro/devkitarm/bin/../lib/gcc/arm-eabi/4.5.1/../../../../arm-eabi/lib/thumb\libg.a(lib_a-memchr.o)
 .comment       0x00000000       0x23 c:/devkitpro/devkitarm/bin/../lib/gcc/arm-eabi/4.5.1/../../../../arm-eabi/lib/thumb\libg.a(lib_a-memcmp.o)
 .comment       0x00000000       0x23 c:/devkitpro/devkitarm/bin/../lib/gcc/arm-eabi/4.5.1/../../../../arm-eabi/lib/thumb\libg.a(lib_a-memcpy.o)
 .comment       0x00000000       0x23 c:/devkitpro/devkitarm/bin/../lib/gcc/arm-eabi/4.5.1/../../../../arm-eabi/lib/thumb\libg.a(lib_a-memmove.o)
 .comment       0x00000000       0x23 c:/devkitpro/devkitarm/bin/../lib/gcc/arm-eabi/4.5.1/../../../../arm-eabi/lib/thumb\libg.a(lib_a-memset.o)
 .comment       0x00000000       0x23 c:/devkitpro/devkitarm/bin/../lib/gcc/arm-eabi/4.5.1/../../../../arm-eabi/lib/thumb\libg.a(lib_a-mktime.o)
 .comment       0x00000000       0x23 c:/devkitpro/devkitarm/bin/../lib/gcc/arm-eabi/4.5.1/../../../../arm-eabi/lib/thumb\libg.a(lib_a-mktm_r.o)
 .comment       0x00000000       0x23 c:/devkitpro/devkitarm/bin/../lib/gcc/arm-eabi/4.5.1/../../../../arm-eabi/lib/thumb\libg.a(lib_a-mlock.o)
 .comment       0x00000000       0x23 c:/devkitpro/devkitarm/bin/../lib/gcc/arm-eabi/4.5.1/../../../../arm-eabi/lib/thumb\libg.a(lib_a-printf.o)
 .comment       0x00000000       0x23 c:/devkitpro/devkitarm/bin/../lib/gcc/arm-eabi/4.5.1/../../../../arm-eabi/lib/thumb\libg.a(lib_a-putc.o)
 .comment       0x00000000       0x23 c:/devkitpro/devkitarm/bin/../lib/gcc/arm-eabi/4.5.1/../../../../arm-eabi/lib/thumb\libg.a(lib_a-putchar.o)
 .comment       0x00000000       0x23 c:/devkitpro/devkitarm/bin/../lib/gcc/arm-eabi/4.5.1/../../../../arm-eabi/lib/thumb\libg.a(lib_a-puts.o)
 .comment       0x00000000       0x23 c:/devkitpro/devkitarm/bin/../lib/gcc/arm-eabi/4.5.1/../../../../arm-eabi/lib/thumb\libg.a(lib_a-qsort.o)
 .comment       0x00000000       0x23 c:/devkitpro/devkitarm/bin/../lib/gcc/arm-eabi/4.5.1/../../../../arm-eabi/lib/thumb\libg.a(lib_a-realloc.o)
 .comment       0x00000000       0x23 c:/devkitpro/devkitarm/bin/../lib/gcc/arm-eabi/4.5.1/../../../../arm-eabi/lib/thumb\libg.a(lib_a-reallocr.o)
 .comment       0x00000000       0x23 c:/devkitpro/devkitarm/bin/../lib/gcc/arm-eabi/4.5.1/../../../../arm-eabi/lib/thumb\libg.a(lib_a-refill.o)
 .comment       0x00000000       0x23 c:/devkitpro/devkitarm/bin/../lib/gcc/arm-eabi/4.5.1/../../../../arm-eabi/lib/thumb\libg.a(lib_a-setbuf.o)
 .comment       0x00000000       0x23 c:/devkitpro/devkitarm/bin/../lib/gcc/arm-eabi/4.5.1/../../../../arm-eabi/lib/thumb\libg.a(lib_a-setvbuf.o)
 .comment       0x00000000       0x23 c:/devkitpro/devkitarm/bin/../lib/gcc/arm-eabi/4.5.1/../../../../arm-eabi/lib/thumb\libg.a(lib_a-signal.o)
 .comment       0x00000000       0x23 c:/devkitpro/devkitarm/bin/../lib/gcc/arm-eabi/4.5.1/../../../../arm-eabi/lib/thumb\libg.a(lib_a-siscanf.o)
 .comment       0x00000000       0x23 c:/devkitpro/devkitarm/bin/../lib/gcc/arm-eabi/4.5.1/../../../../arm-eabi/lib/thumb\libg.a(lib_a-sprintf.o)
 .comment       0x00000000       0x23 c:/devkitpro/devkitarm/bin/../lib/gcc/arm-eabi/4.5.1/../../../../arm-eabi/lib/thumb\libg.a(lib_a-sscanf.o)
 .comment       0x00000000       0x23 c:/devkitpro/devkitarm/bin/../lib/gcc/arm-eabi/4.5.1/../../../../arm-eabi/lib/thumb\libg.a(lib_a-stdio.o)
 .comment       0x00000000       0x23 c:/devkitpro/devkitarm/bin/../lib/gcc/arm-eabi/4.5.1/../../../../arm-eabi/lib/thumb\libg.a(lib_a-strcasecmp.o)
 .comment       0x00000000       0x23 c:/devkitpro/devkitarm/bin/../lib/gcc/arm-eabi/4.5.1/../../../../arm-eabi/lib/thumb\libg.a(lib_a-strcat.o)
 .comment       0x00000000       0x23 c:/devkitpro/devkitarm/bin/../lib/gcc/arm-eabi/4.5.1/../../../../arm-eabi/lib/thumb\libg.a(lib_a-strchr.o)
 .comment       0x00000000       0x23 c:/devkitpro/devkitarm/bin/../lib/gcc/arm-eabi/4.5.1/../../../../arm-eabi/lib/thumb\libg.a(lib_a-strcmp.o)
 .comment       0x00000000       0x23 c:/devkitpro/devkitarm/bin/../lib/gcc/arm-eabi/4.5.1/../../../../arm-eabi/lib/thumb\libg.a(lib_a-strcpy.o)
 .comment       0x00000000       0x23 c:/devkitpro/devkitarm/bin/../lib/gcc/arm-eabi/4.5.1/../../../../arm-eabi/lib/thumb\libg.a(lib_a-strlcpy.o)
 .comment       0x00000000       0x23 c:/devkitpro/devkitarm/bin/../lib/gcc/arm-eabi/4.5.1/../../../../arm-eabi/lib/thumb\libg.a(lib_a-strlen.o)
 .comment       0x00000000       0x23 c:/devkitpro/devkitarm/bin/../lib/gcc/arm-eabi/4.5.1/../../../../arm-eabi/lib/thumb\libg.a(lib_a-strncasecmp.o)
 .comment       0x00000000       0x23 c:/devkitpro/devkitarm/bin/../lib/gcc/arm-eabi/4.5.1/../../../../arm-eabi/lib/thumb\libg.a(lib_a-strncmp.o)
 .comment       0x00000000       0x23 c:/devkitpro/devkitarm/bin/../lib/gcc/arm-eabi/4.5.1/../../../../arm-eabi/lib/thumb\libg.a(lib_a-strncpy.o)
 .comment       0x00000000       0x23 c:/devkitpro/devkitarm/bin/../lib/gcc/arm-eabi/4.5.1/../../../../arm-eabi/lib/thumb\libg.a(lib_a-strnlen.o)
 .comment       0x00000000       0x23 c:/devkitpro/devkitarm/bin/../lib/gcc/arm-eabi/4.5.1/../../../../arm-eabi/lib/thumb\libg.a(lib_a-strpbrk.o)
 .comment       0x00000000       0x23 c:/devkitpro/devkitarm/bin/../lib/gcc/arm-eabi/4.5.1/../../../../arm-eabi/lib/thumb\libg.a(lib_a-strrchr.o)
 .comment       0x00000000       0x23 c:/devkitpro/devkitarm/bin/../lib/gcc/arm-eabi/4.5.1/../../../../arm-eabi/lib/thumb\libg.a(lib_a-strtol.o)
 .comment       0x00000000       0x23 c:/devkitpro/devkitarm/bin/../lib/gcc/arm-eabi/4.5.1/../../../../arm-eabi/lib/thumb\libg.a(lib_a-strupr.o)
 .comment       0x00000000       0x23 c:/devkitpro/devkitarm/bin/../lib/gcc/arm-eabi/4.5.1/../../../../arm-eabi/lib/thumb\libg.a(lib_a-svfiscanf.o)
 .comment       0x00000000       0x23 c:/devkitpro/devkitarm/bin/../lib/gcc/arm-eabi/4.5.1/../../../../arm-eabi/lib/thumb\libg.a(lib_a-svfprintf.o)
 .comment       0x00000000       0x23 c:/devkitpro/devkitarm/bin/../lib/gcc/arm-eabi/4.5.1/../../../../arm-eabi/lib/thumb\libg.a(lib_a-svfscanf.o)
 .comment       0x00000000       0x23 c:/devkitpro/devkitarm/bin/../lib/gcc/arm-eabi/4.5.1/../../../../arm-eabi/lib/thumb\libg.a(lib_a-sysclose.o)
 .comment       0x00000000       0x23 c:/devkitpro/devkitarm/bin/../lib/gcc/arm-eabi/4.5.1/../../../../arm-eabi/lib/thumb\libg.a(lib_a-sysfstat.o)
 .comment       0x00000000       0x23 c:/devkitpro/devkitarm/bin/../lib/gcc/arm-eabi/4.5.1/../../../../arm-eabi/lib/thumb\libg.a(lib_a-syslseek.o)
 .comment       0x00000000       0x23 c:/devkitpro/devkitarm/bin/../lib/gcc/arm-eabi/4.5.1/../../../../arm-eabi/lib/thumb\libg.a(lib_a-sysopen.o)
 .comment       0x00000000       0x23 c:/devkitpro/devkitarm/bin/../lib/gcc/arm-eabi/4.5.1/../../../../arm-eabi/lib/thumb\libg.a(lib_a-sysread.o)
 .comment       0x00000000       0x23 c:/devkitpro/devkitarm/bin/../lib/gcc/arm-eabi/4.5.1/../../../../arm-eabi/lib/thumb\libg.a(lib_a-sysstat.o)
 .comment       0x00000000       0x23 c:/devkitpro/devkitarm/bin/../lib/gcc/arm-eabi/4.5.1/../../../../arm-eabi/lib/thumb\libg.a(lib_a-syswrite.o)
 .comment       0x00000000       0x23 c:/devkitpro/devkitarm/bin/../lib/gcc/arm-eabi/4.5.1/../../../../arm-eabi/lib/thumb\libg.a(lib_a-time.o)
 .comment       0x00000000       0x23 c:/devkitpro/devkitarm/bin/../lib/gcc/arm-eabi/4.5.1/../../../../arm-eabi/lib/thumb\libg.a(lib_a-towlower.o)
 .comment       0x00000000       0x23 c:/devkitpro/devkitarm/bin/../lib/gcc/arm-eabi/4.5.1/../../../../arm-eabi/lib/thumb\libg.a(lib_a-towupper.o)
 .comment       0x00000000       0x23 c:/devkitpro/devkitarm/bin/../lib/gcc/arm-eabi/4.5.1/../../../../arm-eabi/lib/thumb\libg.a(lib_a-tzlock.o)
 .comment       0x00000000       0x23 c:/devkitpro/devkitarm/bin/../lib/gcc/arm-eabi/4.5.1/../../../../arm-eabi/lib/thumb\libg.a(lib_a-tzvars.o)
 .comment       0x00000000       0x23 c:/devkitpro/devkitarm/bin/../lib/gcc/arm-eabi/4.5.1/../../../../arm-eabi/lib/thumb\libg.a(lib_a-ungetc.o)
 .comment       0x00000000       0x23 c:/devkitpro/devkitarm/bin/../lib/gcc/arm-eabi/4.5.1/../../../../arm-eabi/lib/thumb\libg.a(lib_a-vfiprintf.o)
 .comment       0x00000000       0x23 c:/devkitpro/devkitarm/bin/../lib/gcc/arm-eabi/4.5.1/../../../../arm-eabi/lib/thumb\libg.a(lib_a-vfprintf.o)
 .comment       0x00000000       0x23 c:/devkitpro/devkitarm/bin/../lib/gcc/arm-eabi/4.5.1/../../../../arm-eabi/lib/thumb\libg.a(lib_a-vfscanf.o)
 .comment       0x00000000       0x23 c:/devkitpro/devkitarm/bin/../lib/gcc/arm-eabi/4.5.1/../../../../arm-eabi/lib/thumb\libg.a(lib_a-vprintf.o)
 .comment       0x00000000       0x23 c:/devkitpro/devkitarm/bin/../lib/gcc/arm-eabi/4.5.1/../../../../arm-eabi/lib/thumb\libg.a(lib_a-wbuf.o)
 .comment       0x00000000       0x23 c:/devkitpro/devkitarm/bin/../lib/gcc/arm-eabi/4.5.1/../../../../arm-eabi/lib/thumb\libg.a(lib_a-wcrtomb.o)
 .comment       0x00000000       0x23 c:/devkitpro/devkitarm/bin/../lib/gcc/arm-eabi/4.5.1/../../../../arm-eabi/lib/thumb\libg.a(lib_a-wcsrtombs.o)
 .comment       0x00000000       0x23 c:/devkitpro/devkitarm/bin/../lib/gcc/arm-eabi/4.5.1/../../../../arm-eabi/lib/thumb\libg.a(lib_a-wctob.o)
 .comment       0x00000000       0x23 c:/devkitpro/devkitarm/bin/../lib/gcc/arm-eabi/4.5.1/../../../../arm-eabi/lib/thumb\libg.a(lib_a-wctomb_r.o)
 .comment       0x00000000       0x23 c:/devkitpro/devkitarm/bin/../lib/gcc/arm-eabi/4.5.1/../../../../arm-eabi/lib/thumb\libg.a(lib_a-wsetup.o)
 .comment       0x00000000       0x23 c:/devkitpro/devkitarm/bin/../lib/gcc/arm-eabi/4.5.1/../../../../arm-eabi/lib/thumb\libg.a(lib_a-__call_atexit.o)
 .comment       0x00000000       0x23 c:/devkitpro/devkitarm/bin/../lib/gcc/arm-eabi/4.5.1/../../../../arm-eabi/lib/thumb\libg.a(lib_a-div.o)
 .comment       0x00000000       0x23 c:/devkitpro/devkitarm/bin/../lib/gcc/arm-eabi/4.5.1/../../../../arm-eabi/lib/thumb\libg.a(lib_a-dtoa.o)
 .comment       0x00000000       0x23 c:/devkitpro/devkitarm/bin/../lib/gcc/arm-eabi/4.5.1/../../../../arm-eabi/lib/thumb\libg.a(lib_a-flags.o)
 .comment       0x00000000       0x23 c:/devkitpro/devkitarm/bin/../lib/gcc/arm-eabi/4.5.1/../../../../arm-eabi/lib/thumb\libg.a(lib_a-fputwc.o)
 .comment       0x00000000       0x23 c:/devkitpro/devkitarm/bin/../lib/gcc/arm-eabi/4.5.1/../../../../arm-eabi/lib/thumb\libg.a(lib_a-fvwrite.o)
 .comment       0x00000000       0x23 c:/devkitpro/devkitarm/bin/../lib/gcc/arm-eabi/4.5.1/../../../../arm-eabi/lib/thumb\libg.a(lib_a-getenv_r.o)
 .comment       0x00000000       0x23 c:/devkitpro/devkitarm/bin/../lib/gcc/arm-eabi/4.5.1/../../../../arm-eabi/lib/thumb\libg.a(lib_a-gettzinfo.o)
 .comment       0x00000000       0x23 c:/devkitpro/devkitarm/bin/../lib/gcc/arm-eabi/4.5.1/../../../../arm-eabi/lib/thumb\libg.a(lib_a-iswspace.o)
 .comment       0x00000000       0x23 c:/devkitpro/devkitarm/bin/../lib/gcc/arm-eabi/4.5.1/../../../../arm-eabi/lib/thumb\libg.a(lib_a-jp2uc.o)
 .comment       0x00000000       0x23 c:/devkitpro/devkitarm/bin/../lib/gcc/arm-eabi/4.5.1/../../../../arm-eabi/lib/thumb\libg.a(lib_a-mbsnrtowcs.o)
 .comment       0x00000000       0x23 c:/devkitpro/devkitarm/bin/../lib/gcc/arm-eabi/4.5.1/../../../../arm-eabi/lib/thumb\libg.a(lib_a-mprec.o)
 .comment       0x00000000       0x23 c:/devkitpro/devkitarm/bin/../lib/gcc/arm-eabi/4.5.1/../../../../arm-eabi/lib/thumb\libg.a(lib_a-sccl.o)
 .comment       0x00000000       0x23 c:/devkitpro/devkitarm/bin/../lib/gcc/arm-eabi/4.5.1/../../../../arm-eabi/lib/thumb\libg.a(lib_a-sf_nan.o)
 .comment       0x00000000       0x23 c:/devkitpro/devkitarm/bin/../lib/gcc/arm-eabi/4.5.1/../../../../arm-eabi/lib/thumb\libg.a(lib_a-strtod.o)
 .comment       0x00000000       0x23 c:/devkitpro/devkitarm/bin/../lib/gcc/arm-eabi/4.5.1/../../../../arm-eabi/lib/thumb\libg.a(lib_a-strtoll_r.o)
 .comment       0x00000000       0x23 c:/devkitpro/devkitarm/bin/../lib/gcc/arm-eabi/4.5.1/../../../../arm-eabi/lib/thumb\libg.a(lib_a-strtoul.o)
 .comment       0x00000000       0x23 c:/devkitpro/devkitarm/bin/../lib/gcc/arm-eabi/4.5.1/../../../../arm-eabi/lib/thumb\libg.a(lib_a-strtoull_r.o)
 .comment       0x00000000       0x23 c:/devkitpro/devkitarm/bin/../lib/gcc/arm-eabi/4.5.1/../../../../arm-eabi/lib/thumb\libg.a(lib_a-svfiprintf.o)
 .comment       0x00000000       0x23 c:/devkitpro/devkitarm/bin/../lib/gcc/arm-eabi/4.5.1/../../../../arm-eabi/lib/thumb\libg.a(lib_a-wcsnrtombs.o)
 .comment       0x00000000       0x23 c:/devkitpro/devkitarm/bin/../lib/gcc/arm-eabi/4.5.1/../../../../arm-eabi/lib/thumb\libg.a(lib_a-environ.o)
 .comment       0x00000000       0x23 c:/devkitpro/devkitarm/bin/../lib/gcc/arm-eabi/4.5.1/../../../../arm-eabi/lib/thumb\libg.a(lib_a-envlock.o)
 .comment       0x00000000       0x23 c:/devkitpro/devkitarm/bin/../lib/gcc/arm-eabi/4.5.1/../../../../arm-eabi/lib/thumb\libg.a(lib_a-gdtoa-gethex.o)
 .comment       0x00000000       0x23 c:/devkitpro/devkitarm/bin/../lib/gcc/arm-eabi/4.5.1/../../../../arm-eabi/lib/thumb\libg.a(lib_a-gdtoa-hexnan.o)
 .comment       0x00000000       0x23 c:/devkitpro/devkitarm/bin/../lib/gcc/arm-eabi/4.5.1/../../../../arm-eabi/lib/thumb\libsysbase.a(iosupport.o)
 .comment       0x00000000       0x23 c:/devkitpro/devkitarm/bin/../lib/gcc/arm-eabi/4.5.1/../../../../arm-eabi/lib/thumb\libsysbase.a(close.o)
 .comment       0x00000000       0x23 c:/devkitpro/devkitarm/bin/../lib/gcc/arm-eabi/4.5.1/../../../../arm-eabi/lib/thumb\libsysbase.a(fstat.o)
 .comment       0x00000000       0x23 c:/devkitpro/devkitarm/bin/../lib/gcc/arm-eabi/4.5.1/../../../../arm-eabi/lib/thumb\libsysbase.a(getpid.o)
 .comment       0x00000000       0x23 c:/devkitpro/devkitarm/bin/../lib/gcc/arm-eabi/4.5.1/../../../../arm-eabi/lib/thumb\libsysbase.a(isatty.o)
 .comment       0x00000000       0x23 c:/devkitpro/devkitarm/bin/../lib/gcc/arm-eabi/4.5.1/../../../../arm-eabi/lib/thumb\libsysbase.a(kill.o)
 .comment       0x00000000       0x23 c:/devkitpro/devkitarm/bin/../lib/gcc/arm-eabi/4.5.1/../../../../arm-eabi/lib/thumb\libsysbase.a(lseek.o)
 .comment       0x00000000       0x23 c:/devkitpro/devkitarm/bin/../lib/gcc/arm-eabi/4.5.1/../../../../arm-eabi/lib/thumb\libsysbase.a(open.o)
 .comment       0x00000000       0x23 c:/devkitpro/devkitarm/bin/../lib/gcc/arm-eabi/4.5.1/../../../../arm-eabi/lib/thumb\libsysbase.a(read.o)
 .comment       0x00000000       0x23 c:/devkitpro/devkitarm/bin/../lib/gcc/arm-eabi/4.5.1/../../../../arm-eabi/lib/thumb\libsysbase.a(sbrk.o)
 .comment       0x00000000       0x23 c:/devkitpro/devkitarm/bin/../lib/gcc/arm-eabi/4.5.1/../../../../arm-eabi/lib/thumb\libsysbase.a(stat.o)
 .comment       0x00000000       0x23 c:/devkitpro/devkitarm/bin/../lib/gcc/arm-eabi/4.5.1/../../../../arm-eabi/lib/thumb\libsysbase.a(times.o)
 .comment       0x00000000       0x23 c:/devkitpro/devkitarm/bin/../lib/gcc/arm-eabi/4.5.1/../../../../arm-eabi/lib/thumb\libsysbase.a(write.o)
 .comment       0x00000000       0x23 c:/devkitpro/devkitarm/bin/../lib/gcc/arm-eabi/4.5.1/../../../../arm-eabi/lib/thumb\libsysbase.a(_exit.o)
 .comment       0x00000000       0x23 c:/devkitpro/devkitarm/bin/../lib/gcc/arm-eabi/4.5.1/../../../../arm-eabi/lib/thumb\libsysbase.a(malloc_vars.o)
 .comment       0x00000000       0x23 c:/devkitpro/devkitarm/bin/../lib/gcc/arm-eabi/4.5.1/../../../../arm-eabi/lib/thumb\libsysbase.a(chdir.o)
 .comment       0x00000000       0x23 c:/devkitpro/devkitarm/bin/../lib/gcc/arm-eabi/4.5.1/../../../../arm-eabi/lib/thumb\libsysbase.a(build_argv.o)
 .comment       0x00000000       0x23 c:/devkitpro/devkitarm/bin/../lib/gcc/arm-eabi/4.5.1/../../../../arm-eabi/lib/thumb\libsysbase.a(syscall_support.o)
 .comment       0x00000000       0x23 c:/devkitpro/devkitarm/bin/../lib/gcc/arm-eabi/4.5.1/../../../../arm-eabi/lib/thumb\libsysbase.a(handle_manager.o)
 .comment       0x00000000       0x23 c:/devkitpro/devkitarm/bin/../lib/gcc/arm-eabi/4.5.1/thumb/crtend.o

.debug
 *(.debug)

.line
 *(.line)

.debug_srcinfo
 *(.debug_srcinfo)

.debug_sfnames
 *(.debug_sfnames)

.debug_aranges  0x00000000      0xa20 load address 0x0208750c
 *(.debug_aranges)
 .debug_aranges
                0x00000000       0x20 ds_render.o
 .debug_aranges
                0x00000020       0x20 glMain.o
 .debug_aranges
                0x00000040       0x20 template.o
 .debug_aranges
                0x00000060       0x20 AM_MAP.o
 .debug_aranges
                0x00000080       0x20 CT_CHAT.o
 .debug_aranges
                0x000000a0       0x20 D_MAIN.o
 .debug_aranges
                0x000000c0       0x20 D_NET.o
 .debug_aranges
                0x000000e0       0x20 F_FINALE.o
 .debug_aranges
                0x00000100       0x20 G_GAME.o
 .debug_aranges
                0x00000120       0x20 IN_LUDE.o
 .debug_aranges
                0x00000140       0x20 I_IBM.o
 .debug_aranges
                0x00000160       0x20 I_SOUND.o
 .debug_aranges
                0x00000180       0x20 MN_MENU.o
 .debug_aranges
                0x000001a0       0x20 M_MISC.o
 .debug_aranges
                0x000001c0       0x20 P_CEILNG.o
 .debug_aranges
                0x000001e0       0x20 P_DOORS.o
 .debug_aranges
                0x00000200       0x20 P_ENEMY.o
 .debug_aranges
                0x00000220       0x20 P_FLOOR.o
 .debug_aranges
                0x00000240       0x20 P_INTER.o
 .debug_aranges
                0x00000260       0x20 P_LIGHTS.o
 .debug_aranges
                0x00000280       0x20 P_MAP.o
 .debug_aranges
                0x000002a0       0x20 P_MAPUTL.o
 .debug_aranges
                0x000002c0       0x20 P_MOBJ.o
 .debug_aranges
                0x000002e0       0x20 P_PLATS.o
 .debug_aranges
                0x00000300       0x20 P_PSPR.o
 .debug_aranges
                0x00000320       0x20 P_SETUP.o
 .debug_aranges
                0x00000340       0x20 P_SIGHT.o
 .debug_aranges
                0x00000360       0x20 P_SPEC.o
 .debug_aranges
                0x00000380       0x20 P_SWITCH.o
 .debug_aranges
                0x000003a0       0x20 P_TELEPT.o
 .debug_aranges
                0x000003c0       0x20 P_TICK.o
 .debug_aranges
                0x000003e0       0x20 P_USER.o
 .debug_aranges
                0x00000400       0x20 R_DATA.o
 .debug_aranges
                0x00000420       0x20 R_MAIN.o
 .debug_aranges
                0x00000440       0x20 R_THINGS.o
 .debug_aranges
                0x00000460       0x20 SB_BAR.o
 .debug_aranges
                0x00000480       0x20 V_VIDEO.o
 .debug_aranges
                0x000004a0       0x20 W_WAD.o
 .debug_aranges
                0x000004c0       0x20 Z_ZONE.o
 .debug_aranges
                0x000004e0       0x20 ds_textures.o
 .debug_aranges
                0x00000500       0x20 geometry.o
 .debug_aranges
                0x00000520       0x20 polylib.o
 .debug_aranges
                0x00000540       0x20 soundst.o
 .debug_aranges
                0x00000560       0x20 hexenarm.o
 .debug_aranges
                0x00000580       0x20 c:/devkitPro/libnds/lib\libfat.a(libfat.o)
 .debug_aranges
                0x000005a0       0x20 c:/devkitPro/libnds/lib\libfat.a(partition.o)
 .debug_aranges
                0x000005c0       0x20 c:/devkitPro/libnds/lib\libfat.a(cache.o)
 .debug_aranges
                0x000005e0       0x20 c:/devkitPro/libnds/lib\libfat.a(directory.o)
 .debug_aranges
                0x00000600       0x20 c:/devkitPro/libnds/lib\libfat.a(disc.o)
 .debug_aranges
                0x00000620       0x20 c:/devkitPro/libnds/lib\libfat.a(fatdir.o)
 .debug_aranges
                0x00000640       0x20 c:/devkitPro/libnds/lib\libfat.a(fatfile.o)
 .debug_aranges
                0x00000660       0x20 c:/devkitPro/libnds/lib\libfat.a(file_allocation_table.o)
 .debug_aranges
                0x00000680       0x20 c:/devkitPro/libnds/lib\libfat.a(filetime.o)
 .debug_aranges
                0x000006a0       0x20 c:/devkitPro/libnds/lib\libfat.a(lock.o)
 .debug_aranges
                0x000006c0       0x20 c:/devkitPro/libnds/lib\libnds9.a(background.o)
 .debug_aranges
                0x000006e0       0x20 c:/devkitPro/libnds/lib\libnds9.a(console.o)
 .debug_aranges
                0x00000700       0x20 c:/devkitPro/libnds/lib\libnds9.a(gurumeditation.o)
 .debug_aranges
                0x00000720       0x20 c:/devkitPro/libnds/lib\libnds9.a(keys.o)
 .debug_aranges
                0x00000740       0x20 c:/devkitPro/libnds/lib\libnds9.a(sassert.o)
 .debug_aranges
                0x00000760       0x20 c:/devkitPro/libnds/lib\libnds9.a(sound.o)
 .debug_aranges
                0x00000780       0x20 c:/devkitPro/libnds/lib\libnds9.a(touch.o)
 .debug_aranges
                0x000007a0       0x20 c:/devkitPro/libnds/lib\libnds9.a(trig.o)
 .debug_aranges
                0x000007c0       0x20 c:/devkitPro/libnds/lib\libnds9.a(video.o)
 .debug_aranges
                0x000007e0       0x20 c:/devkitPro/libnds/lib\libnds9.a(videoGL.o)
 .debug_aranges
                0x00000800       0x20 c:/devkitPro/libnds/lib\libnds9.a(dldi.o)
 .debug_aranges
                0x00000820       0x20 c:/devkitPro/libnds/lib\libnds9.a(dsi_sd.o)
 .debug_aranges
                0x00000840       0x20 c:/devkitPro/libnds/lib\libnds9.a(initSystem.o)
 .debug_aranges
                0x00000860       0x20 c:/devkitPro/libnds/lib\libnds9.a(fifosystem.o)
 .debug_aranges
                0x00000880       0x20 c:/devkitPro/libnds/lib\libnds9.a(interrupts.o)
 .debug_aranges
                0x000008a0       0x20 c:/devkitPro/libnds/lib\libnds9.a(libnds_exit.o)
 .debug_aranges
                0x000008c0       0x20 c:/devkitPro/libnds/lib\libnds9.a(dcache.o)
 .debug_aranges
                0x000008e0       0x20 c:/devkitPro/libnds/lib\libnds9.a(exceptionHandler.o)
 .debug_aranges
                0x00000900       0x20 c:/devkitPro/libnds/lib\libnds9.a(dldi_stub.o)
 .debug_aranges
                0x00000920       0x20 c:/devkitPro/libnds/lib\libnds9.a(mpu_setup.o)
 .debug_aranges
                0x00000940       0x20 c:/devkitPro/libnds/lib\libnds9.a(biosCalls.o)
 .debug_aranges
                0x00000960       0x20 c:/devkitPro/libnds/lib\libnds9.a(debugprint.o)
 .debug_aranges
                0x00000980       0x20 c:/devkitPro/libnds/lib\libnds9.a(interruptDispatcher.o)
 .debug_aranges
                0x000009a0       0x20 c:/devkitPro/libnds/lib\libnds9.a(swiSoftReset.o)
 .debug_aranges
                0x000009c0       0x20 c:/devkitPro/libnds/lib\libnds9.a(dynamicArray.o)
 .debug_aranges
                0x000009e0       0x20 c:/devkitPro/libnds/lib\libnds9.a(exceptions.o)
 .debug_aranges
                0x00000a00       0x20 c:/devkitPro/libnds/lib\libnds9.a(system.o)

.debug_pubnames
                0x00000000     0x6eaf load address 0x0208750c
 *(.debug_pubnames)
 .debug_pubnames
                0x00000000      0x317 ds_render.o
 .debug_pubnames
                0x00000317      0x135 glMain.o
 .debug_pubnames
                0x0000044c       0xae template.o
 .debug_pubnames
                0x000004fa      0x2e4 AM_MAP.o
 .debug_pubnames
                0x000007de      0x174 CT_CHAT.o
 .debug_pubnames
                0x00000952      0x344 D_MAIN.o
 .debug_pubnames
                0x00000c96      0x221 D_NET.o
 .debug_pubnames
                0x00000eb7      0x11f F_FINALE.o
 .debug_pubnames
                0x00000fd6      0x7fb G_GAME.o
 .debug_pubnames
                0x000017d1       0x37 INFO.o
 .debug_pubnames
                0x00001808      0x156 IN_LUDE.o
 .debug_pubnames
                0x0000195e      0x494 I_IBM.o
 .debug_pubnames
                0x00001df2      0x244 I_SOUND.o
 .debug_pubnames
                0x00002036      0x122 MN_MENU.o
 .debug_pubnames
                0x00002158      0x1b2 M_MISC.o
 .debug_pubnames
                0x0000230a       0xaf P_CEILNG.o
 .debug_pubnames
                0x000023b9       0x7c P_DOORS.o
 .debug_pubnames
                0x00002435      0x6ec P_ENEMY.o
 .debug_pubnames
                0x00002b21       0x54 P_FLOOR.o
 .debug_pubnames
                0x00002b75      0x1f4 P_INTER.o
 .debug_pubnames
                0x00002d69       0xca P_LIGHTS.o
 .debug_pubnames
                0x00002e33      0x3af P_MAP.o
 .debug_pubnames
                0x000031e2      0x1df P_MAPUTL.o
 .debug_pubnames
                0x000033c1      0x23f P_MOBJ.o
 .debug_pubnames
                0x00003600       0x92 P_PLATS.o
 .debug_pubnames
                0x00003692      0x487 P_PSPR.o
 .debug_pubnames
                0x00003b19      0x253 P_SETUP.o
 .debug_pubnames
                0x00003d6c       0xca P_SIGHT.o
 .debug_pubnames
                0x00003e36      0x3b0 P_SPEC.o
 .debug_pubnames
                0x000041e6       0xa9 P_SWITCH.o
 .debug_pubnames
                0x0000428f       0x31 P_TELEPT.o
 .debug_pubnames
                0x000042c0      0x169 P_TICK.o
 .debug_pubnames
                0x00004429      0x157 P_USER.o
 .debug_pubnames
                0x00004580      0x329 R_DATA.o
 .debug_pubnames
                0x000048a9      0x3bf R_MAIN.o
 .debug_pubnames
                0x00004c68       0xee R_THINGS.o
 .debug_pubnames
                0x00004d56      0x27d SB_BAR.o
 .debug_pubnames
                0x00004fd3       0x28 SOUNDS.o
 .debug_pubnames
                0x00004ffb       0x3e TABLES.o
 .debug_pubnames
                0x00005039       0xa1 V_VIDEO.o
 .debug_pubnames
                0x000050da      0x112 W_WAD.o
 .debug_pubnames
                0x000051ec       0xc9 Z_ZONE.o
 .debug_pubnames
                0x000052b5      0x2b3 ds_textures.o
 .debug_pubnames
                0x00005568      0x1bd geometry.o
 .debug_pubnames
                0x00005725       0xa4 polylib.o
 .debug_pubnames
                0x000057c9      0x15e soundst.o
 .debug_pubnames
                0x00005927       0x76 c:/devkitPro/libnds/lib\libfat.a(libfat.o)
 .debug_pubnames
                0x0000599d       0xf0 c:/devkitPro/libnds/lib\libfat.a(partition.o)
 .debug_pubnames
                0x00005a8d      0x162 c:/devkitPro/libnds/lib\libfat.a(cache.o)
 .debug_pubnames
                0x00005bef      0x16f c:/devkitPro/libnds/lib\libfat.a(directory.o)
 .debug_pubnames
                0x00005d5e       0x2b c:/devkitPro/libnds/lib\libfat.a(disc.o)
 .debug_pubnames
                0x00005d89       0xd9 c:/devkitPro/libnds/lib\libfat.a(fatdir.o)
 .debug_pubnames
                0x00005e62       0xaf c:/devkitPro/libnds/lib\libfat.a(fatfile.o)
 .debug_pubnames
                0x00005f11       0xd2 c:/devkitPro/libnds/lib\libfat.a(file_allocation_table.o)
 .debug_pubnames
                0x00005fe3       0x70 c:/devkitPro/libnds/lib\libfat.a(filetime.o)
 .debug_pubnames
                0x00006053       0x58 c:/devkitPro/libnds/lib\libfat.a(lock.o)
 .debug_pubnames
                0x000060ab       0xab c:/devkitPro/libnds/lib\libnds9.a(background.o)
 .debug_pubnames
                0x00006156      0x12a c:/devkitPro/libnds/lib\libnds9.a(console.o)
 .debug_pubnames
                0x00006280       0x6a c:/devkitPro/libnds/lib\libnds9.a(gurumeditation.o)
 .debug_pubnames
                0x000062ea       0x79 c:/devkitPro/libnds/lib\libnds9.a(keys.o)
 .debug_pubnames
                0x00006363       0x20 c:/devkitPro/libnds/lib\libnds9.a(sassert.o)
 .debug_pubnames
                0x00006383      0x129 c:/devkitPro/libnds/lib\libnds9.a(sound.o)
 .debug_pubnames
                0x000064ac       0x30 c:/devkitPro/libnds/lib\libnds9.a(touch.o)
 .debug_pubnames
                0x000064dc       0xa4 c:/devkitPro/libnds/lib\libnds9.a(trig.o)
 .debug_pubnames
                0x00006580       0xc4 c:/devkitPro/libnds/lib\libnds9.a(video.o)
 .debug_pubnames
                0x00006644      0x2c2 c:/devkitPro/libnds/lib\libnds9.a(videoGL.o)
 .debug_pubnames
                0x00006906       0xba c:/devkitPro/libnds/lib\libnds9.a(dldi.o)
 .debug_pubnames
                0x000069c0       0x98 c:/devkitPro/libnds/lib\libnds9.a(dsi_sd.o)
 .debug_pubnames
                0x00006a58       0x2f c:/devkitPro/libnds/lib\libnds9.a(initSystem.o)
 .debug_pubnames
                0x00006a87      0x259 c:/devkitPro/libnds/lib\libnds9.a(fifosystem.o)
 .debug_pubnames
                0x00006ce0       0x80 c:/devkitPro/libnds/lib\libnds9.a(interrupts.o)
 .debug_pubnames
                0x00006d60       0x38 c:/devkitPro/libnds/lib\libnds9.a(libnds_exit.o)
 .debug_pubnames
                0x00006d98       0x66 c:/devkitPro/libnds/lib\libnds9.a(dynamicArray.o)
 .debug_pubnames
                0x00006dfe       0x2a c:/devkitPro/libnds/lib\libnds9.a(exceptions.o)
 .debug_pubnames
                0x00006e28       0x87 c:/devkitPro/libnds/lib\libnds9.a(system.o)

.debug_info     0x00000000    0xddd50 load address 0x0208750c
 *(.debug_info)
 .debug_info    0x00000000     0x63a4 ds_render.o
 .debug_info    0x000063a4     0x4e8c glMain.o
 .debug_info    0x0000b230     0x1666 template.o
 .debug_info    0x0000c896     0x5790 AM_MAP.o
 .debug_info    0x00012026     0x4432 CT_CHAT.o
 .debug_info    0x00016458     0x506c D_MAIN.o
 .debug_info    0x0001b4c4     0x4e80 D_NET.o
 .debug_info    0x00020344     0x4218 F_FINALE.o
 .debug_info    0x0002455c     0x6497 G_GAME.o
 .debug_info    0x0002a9f3     0x35d8 INFO.o
 .debug_info    0x0002dfcb     0x4984 IN_LUDE.o
 .debug_info    0x0003294f     0x3fc4 I_IBM.o
 .debug_info    0x00036913     0x356d I_SOUND.o
 .debug_info    0x00039e80     0x56f0 MN_MENU.o
 .debug_info    0x0003f570     0x51da M_MISC.o
 .debug_info    0x0004474a     0x43e0 P_CEILNG.o
 .debug_info    0x00048b2a     0x43c8 P_DOORS.o
 .debug_info    0x0004cef2     0x5ddf P_ENEMY.o
 .debug_info    0x00052cd1     0x447f P_FLOOR.o
 .debug_info    0x00057150     0x4b49 P_INTER.o
 .debug_info    0x0005bc99     0x3ff1 P_LIGHTS.o
 .debug_info    0x0005fc8a     0x5220 P_MAP.o
 .debug_info    0x00064eaa     0x4736 P_MAPUTL.o
 .debug_info    0x000695e0     0x4eb2 P_MOBJ.o
 .debug_info    0x0006e492     0x4542 P_PLATS.o
 .debug_info    0x000729d4     0x5421 P_PSPR.o
 .debug_info    0x00077df5     0x4ebf P_SETUP.o
 .debug_info    0x0007ccb4     0x42f2 P_SIGHT.o
 .debug_info    0x00080fa6     0x5397 P_SPEC.o
 .debug_info    0x0008633d     0x45c1 P_SWITCH.o
 .debug_info    0x0008a8fe     0x41f7 P_TELEPT.o
 .debug_info    0x0008eaf5     0x497a P_TICK.o
 .debug_info    0x0009346f     0x482a P_USER.o
 .debug_info    0x00097c99     0x4da0 R_DATA.o
 .debug_info    0x0009ca39     0x4a01 R_MAIN.o
 .debug_info    0x000a143a     0x3387 R_THINGS.o
 .debug_info    0x000a47c1     0x5242 SB_BAR.o
 .debug_info    0x000a9a03     0x3459 SOUNDS.o
 .debug_info    0x000ace5c     0x3002 TABLES.o
 .debug_info    0x000afe5e     0x3191 V_VIDEO.o
 .debug_info    0x000b2fef     0x36d0 W_WAD.o
 .debug_info    0x000b66bf     0x3c28 Z_ZONE.o
 .debug_info    0x000ba2e7     0x44a4 ds_textures.o
 .debug_info    0x000be78b     0x4a30 geometry.o
 .debug_info    0x000c31bb      0xd49 polylib.o
 .debug_info    0x000c3f04     0x49c3 soundst.o
 .debug_info    0x000c88c7       0x6c hexenarm.o
 .debug_info    0x000c8933     0x196a c:/devkitPro/libnds/lib\libfat.a(libfat.o)
 .debug_info    0x000ca29d     0x1efd c:/devkitPro/libnds/lib\libfat.a(partition.o)
 .debug_info    0x000cc19a      0xc06 c:/devkitPro/libnds/lib\libfat.a(cache.o)
 .debug_info    0x000ccda0     0x1abd c:/devkitPro/libnds/lib\libfat.a(directory.o)
 .debug_info    0x000ce85d      0x275 c:/devkitPro/libnds/lib\libfat.a(disc.o)
 .debug_info    0x000cead2     0x19c9 c:/devkitPro/libnds/lib\libfat.a(fatdir.o)
 .debug_info    0x000d049b     0x1f54 c:/devkitPro/libnds/lib\libfat.a(fatfile.o)
 .debug_info    0x000d23ef      0x811 c:/devkitPro/libnds/lib\libfat.a(file_allocation_table.o)
 .debug_info    0x000d2c00      0x1d3 c:/devkitPro/libnds/lib\libfat.a(filetime.o)
 .debug_info    0x000d2dd3      0x11b c:/devkitPro/libnds/lib\libfat.a(lock.o)
 .debug_info    0x000d2eee      0x8c8 c:/devkitPro/libnds/lib\libnds9.a(background.o)
 .debug_info    0x000d37b6     0x20d1 c:/devkitPro/libnds/lib\libnds9.a(console.o)
 .debug_info    0x000d5887      0x5e0 c:/devkitPro/libnds/lib\libnds9.a(gurumeditation.o)
 .debug_info    0x000d5e67      0x3d0 c:/devkitPro/libnds/lib\libnds9.a(keys.o)
 .debug_info    0x000d6237      0x323 c:/devkitPro/libnds/lib\libnds9.a(sassert.o)
 .debug_info    0x000d655a      0x8f7 c:/devkitPro/libnds/lib\libnds9.a(sound.o)
 .debug_info    0x000d6e51      0x2c2 c:/devkitPro/libnds/lib\libnds9.a(touch.o)
 .debug_info    0x000d7113      0x4b6 c:/devkitPro/libnds/lib\libnds9.a(trig.o)
 .debug_info    0x000d75c9      0x651 c:/devkitPro/libnds/lib\libnds9.a(video.o)
 .debug_info    0x000d7c1a     0x1dc7 c:/devkitPro/libnds/lib\libnds9.a(videoGL.o)
 .debug_info    0x000d99e1      0x5f9 c:/devkitPro/libnds/lib\libnds9.a(dldi.o)
 .debug_info    0x000d9fda      0x6c1 c:/devkitPro/libnds/lib\libnds9.a(dsi_sd.o)
 .debug_info    0x000da69b      0xed0 c:/devkitPro/libnds/lib\libnds9.a(initSystem.o)
 .debug_info    0x000db56b     0x10ca c:/devkitPro/libnds/lib\libnds9.a(fifosystem.o)
 .debug_info    0x000dc635      0x466 c:/devkitPro/libnds/lib\libnds9.a(interrupts.o)
 .debug_info    0x000dca9b      0x2a6 c:/devkitPro/libnds/lib\libnds9.a(libnds_exit.o)
 .debug_info    0x000dcd41       0xc0 c:/devkitPro/libnds/lib\libnds9.a(dcache.o)
 .debug_info    0x000dce01       0xca c:/devkitPro/libnds/lib\libnds9.a(exceptionHandler.o)
 .debug_info    0x000dcecb       0xc8 c:/devkitPro/libnds/lib\libnds9.a(dldi_stub.o)
 .debug_info    0x000dcf93       0xca c:/devkitPro/libnds/lib\libnds9.a(mpu_setup.o)
 .debug_info    0x000dd05d       0xc5 c:/devkitPro/libnds/lib\libnds9.a(biosCalls.o)
 .debug_info    0x000dd122       0xc6 c:/devkitPro/libnds/lib\libnds9.a(debugprint.o)
 .debug_info    0x000dd1e8       0xcf c:/devkitPro/libnds/lib\libnds9.a(interruptDispatcher.o)
 .debug_info    0x000dd2b7       0xc8 c:/devkitPro/libnds/lib\libnds9.a(swiSoftReset.o)
 .debug_info    0x000dd37f      0x1e7 c:/devkitPro/libnds/lib\libnds9.a(dynamicArray.o)
 .debug_info    0x000dd566       0xf6 c:/devkitPro/libnds/lib\libnds9.a(exceptions.o)
 .debug_info    0x000dd65c      0x6f4 c:/devkitPro/libnds/lib\libnds9.a(system.o)

.debug_abbrev   0x00000000     0xa91f load address 0x0208750c
 *(.debug_abbrev)
 .debug_abbrev  0x00000000      0x387 ds_render.o
 .debug_abbrev  0x00000387      0x30c glMain.o
 .debug_abbrev  0x00000693      0x27e template.o
 .debug_abbrev  0x00000911      0x2d0 AM_MAP.o
 .debug_abbrev  0x00000be1      0x269 CT_CHAT.o
 .debug_abbrev  0x00000e4a      0x2b2 D_MAIN.o
 .debug_abbrev  0x000010fc      0x2b1 D_NET.o
 .debug_abbrev  0x000013ad      0x23a F_FINALE.o
 .debug_abbrev  0x000015e7      0x2fb G_GAME.o
 .debug_abbrev  0x000018e2      0x15b INFO.o
 .debug_abbrev  0x00001a3d      0x22a IN_LUDE.o
 .debug_abbrev  0x00001c67      0x2f3 I_IBM.o
 .debug_abbrev  0x00001f5a      0x207 I_SOUND.o
 .debug_abbrev  0x00002161      0x2d7 MN_MENU.o
 .debug_abbrev  0x00002438      0x2d3 M_MISC.o
 .debug_abbrev  0x0000270b      0x214 P_CEILNG.o
 .debug_abbrev  0x0000291f      0x229 P_DOORS.o
 .debug_abbrev  0x00002b48      0x2ad P_ENEMY.o
 .debug_abbrev  0x00002df5      0x234 P_FLOOR.o
 .debug_abbrev  0x00003029      0x258 P_INTER.o
 .debug_abbrev  0x00003281      0x1e1 P_LIGHTS.o
 .debug_abbrev  0x00003462      0x2a7 P_MAP.o
 .debug_abbrev  0x00003709      0x298 P_MAPUTL.o
 .debug_abbrev  0x000039a1      0x271 P_MOBJ.o
 .debug_abbrev  0x00003c12      0x214 P_PLATS.o
 .debug_abbrev  0x00003e26      0x24f P_PSPR.o
 .debug_abbrev  0x00004075      0x28f P_SETUP.o
 .debug_abbrev  0x00004304      0x229 P_SIGHT.o
 .debug_abbrev  0x0000452d      0x275 P_SPEC.o
 .debug_abbrev  0x000047a2      0x214 P_SWITCH.o
 .debug_abbrev  0x000049b6      0x1ec P_TELEPT.o
 .debug_abbrev  0x00004ba2      0x241 P_TICK.o
 .debug_abbrev  0x00004de3      0x23a P_USER.o
 .debug_abbrev  0x0000501d      0x288 R_DATA.o
 .debug_abbrev  0x000052a5      0x2c0 R_MAIN.o
 .debug_abbrev  0x00005565      0x18f R_THINGS.o
 .debug_abbrev  0x000056f4      0x24e SB_BAR.o
 .debug_abbrev  0x00005942      0x135 SOUNDS.o
 .debug_abbrev  0x00005a77      0x142 TABLES.o
 .debug_abbrev  0x00005bb9      0x17f V_VIDEO.o
 .debug_abbrev  0x00005d38      0x22b W_WAD.o
 .debug_abbrev  0x00005f63      0x286 Z_ZONE.o
 .debug_abbrev  0x000061e9      0x2a5 ds_textures.o
 .debug_abbrev  0x0000648e      0x301 geometry.o
 .debug_abbrev  0x0000678f      0x22e polylib.o
 .debug_abbrev  0x000069bd      0x2c0 soundst.o
 .debug_abbrev  0x00006c7d       0x14 hexenarm.o
 .debug_abbrev  0x00006c91      0x2b7 c:/devkitPro/libnds/lib\libfat.a(libfat.o)
 .debug_abbrev  0x00006f48      0x358 c:/devkitPro/libnds/lib\libfat.a(partition.o)
 .debug_abbrev  0x000072a0      0x2a4 c:/devkitPro/libnds/lib\libfat.a(cache.o)
 .debug_abbrev  0x00007544      0x408 c:/devkitPro/libnds/lib\libfat.a(directory.o)
 .debug_abbrev  0x0000794c       0xf6 c:/devkitPro/libnds/lib\libfat.a(disc.o)
 .debug_abbrev  0x00007a42      0x35a c:/devkitPro/libnds/lib\libfat.a(fatdir.o)
 .debug_abbrev  0x00007d9c      0x3c8 c:/devkitPro/libnds/lib\libfat.a(fatfile.o)
 .debug_abbrev  0x00008164      0x1e6 c:/devkitPro/libnds/lib\libfat.a(file_allocation_table.o)
 .debug_abbrev  0x0000834a       0xa1 c:/devkitPro/libnds/lib\libfat.a(filetime.o)
 .debug_abbrev  0x000083eb       0x79 c:/devkitPro/libnds/lib\libfat.a(lock.o)
 .debug_abbrev  0x00008464      0x22c c:/devkitPro/libnds/lib\libnds9.a(background.o)
 .debug_abbrev  0x00008690      0x455 c:/devkitPro/libnds/lib\libnds9.a(console.o)
 .debug_abbrev  0x00008ae5      0x1bd c:/devkitPro/libnds/lib\libnds9.a(gurumeditation.o)
 .debug_abbrev  0x00008ca2      0x176 c:/devkitPro/libnds/lib\libnds9.a(keys.o)
 .debug_abbrev  0x00008e18      0x112 c:/devkitPro/libnds/lib\libnds9.a(sassert.o)
 .debug_abbrev  0x00008f2a      0x18c c:/devkitPro/libnds/lib\libnds9.a(sound.o)
 .debug_abbrev  0x000090b6      0x123 c:/devkitPro/libnds/lib\libnds9.a(touch.o)
 .debug_abbrev  0x000091d9      0x1c2 c:/devkitPro/libnds/lib\libnds9.a(trig.o)
 .debug_abbrev  0x0000939b      0x1b9 c:/devkitPro/libnds/lib\libnds9.a(video.o)
 .debug_abbrev  0x00009554      0x390 c:/devkitPro/libnds/lib\libnds9.a(videoGL.o)
 .debug_abbrev  0x000098e4      0x207 c:/devkitPro/libnds/lib\libnds9.a(dldi.o)
 .debug_abbrev  0x00009aeb      0x176 c:/devkitPro/libnds/lib\libnds9.a(dsi_sd.o)
 .debug_abbrev  0x00009c61      0x242 c:/devkitPro/libnds/lib\libnds9.a(initSystem.o)
 .debug_abbrev  0x00009ea3      0x3af c:/devkitPro/libnds/lib\libnds9.a(fifosystem.o)
 .debug_abbrev  0x0000a252      0x1d5 c:/devkitPro/libnds/lib\libnds9.a(interrupts.o)
 .debug_abbrev  0x0000a427      0x131 c:/devkitPro/libnds/lib\libnds9.a(libnds_exit.o)
 .debug_abbrev  0x0000a558       0x14 c:/devkitPro/libnds/lib\libnds9.a(dcache.o)
 .debug_abbrev  0x0000a56c       0x14 c:/devkitPro/libnds/lib\libnds9.a(exceptionHandler.o)
 .debug_abbrev  0x0000a580       0x14 c:/devkitPro/libnds/lib\libnds9.a(dldi_stub.o)
 .debug_abbrev  0x0000a594       0x14 c:/devkitPro/libnds/lib\libnds9.a(mpu_setup.o)
 .debug_abbrev  0x0000a5a8       0x14 c:/devkitPro/libnds/lib\libnds9.a(biosCalls.o)
 .debug_abbrev  0x0000a5bc       0x14 c:/devkitPro/libnds/lib\libnds9.a(debugprint.o)
 .debug_abbrev  0x0000a5d0       0x14 c:/devkitPro/libnds/lib\libnds9.a(interruptDispatcher.o)
 .debug_abbrev  0x0000a5e4       0x14 c:/devkitPro/libnds/lib\libnds9.a(swiSoftReset.o)
 .debug_abbrev  0x0000a5f8       0xf6 c:/devkitPro/libnds/lib\libnds9.a(dynamicArray.o)
 .debug_abbrev  0x0000a6ee       0x97 c:/devkitPro/libnds/lib\libnds9.a(exceptions.o)
 .debug_abbrev  0x0000a785      0x19a c:/devkitPro/libnds/lib\libnds9.a(system.o)

.debug_line     0x00000000    0x13566 load address 0x0208750c
 *(.debug_line)
 .debug_line    0x00000000      0xbdc ds_render.o
 .debug_line    0x00000bdc      0x485 glMain.o
 .debug_line    0x00001061      0x3c9 template.o
 .debug_line    0x0000142a      0x910 AM_MAP.o
 .debug_line    0x00001d3a      0x330 CT_CHAT.o
 .debug_line    0x0000206a      0x491 D_MAIN.o
 .debug_line    0x000024fb      0x540 D_NET.o
 .debug_line    0x00002a3b      0x2b1 F_FINALE.o
 .debug_line    0x00002cec      0x7a5 G_GAME.o
 .debug_line    0x00003491      0x18b INFO.o
 .debug_line    0x0000361c      0x580 IN_LUDE.o
 .debug_line    0x00003b9c      0x3e4 I_IBM.o
 .debug_line    0x00003f80      0x1fb I_SOUND.o
 .debug_line    0x0000417b      0x6db MN_MENU.o
 .debug_line    0x00004856      0x466 M_MISC.o
 .debug_line    0x00004cbc      0x292 P_CEILNG.o
 .debug_line    0x00004f4e      0x2b7 P_DOORS.o
 .debug_line    0x00005205      0x9e2 P_ENEMY.o
 .debug_line    0x00005be7      0x313 P_FLOOR.o
 .debug_line    0x00005efa      0x624 P_INTER.o
 .debug_line    0x0000651e      0x254 P_LIGHTS.o
 .debug_line    0x00006772      0x615 P_MAP.o
 .debug_line    0x00006d87      0x382 P_MAPUTL.o
 .debug_line    0x00007109      0x69e P_MOBJ.o
 .debug_line    0x000077a7      0x2b1 P_PLATS.o
 .debug_line    0x00007a58      0x6bf P_PSPR.o
 .debug_line    0x00008117      0x50a P_SETUP.o
 .debug_line    0x00008621      0x2ab P_SIGHT.o
 .debug_line    0x000088cc      0x4eb P_SPEC.o
 .debug_line    0x00008db7      0x2c0 P_SWITCH.o
 .debug_line    0x00009077      0x25d P_TELEPT.o
 .debug_line    0x000092d4      0x3d5 P_TICK.o
 .debug_line    0x000096a9      0x4bf P_USER.o
 .debug_line    0x00009b68      0x4b6 R_DATA.o
 .debug_line    0x0000a01e      0x296 R_MAIN.o
 .debug_line    0x0000a2b4      0x253 R_THINGS.o
 .debug_line    0x0000a507      0x5cd SB_BAR.o
 .debug_line    0x0000aad4      0x18d SOUNDS.o
 .debug_line    0x0000ac61      0x181 TABLES.o
 .debug_line    0x0000ade2      0x1b8 V_VIDEO.o
 .debug_line    0x0000af9a      0x327 W_WAD.o
 .debug_line    0x0000b2c1      0x366 Z_ZONE.o
 .debug_line    0x0000b627      0x4d2 ds_textures.o
 .debug_line    0x0000baf9      0x395 geometry.o
 .debug_line    0x0000be8e      0x2fa polylib.o
 .debug_line    0x0000c188      0x34a soundst.o
 .debug_line    0x0000c4d2       0x83 hexenarm.o
 .debug_line    0x0000c555      0x412 c:/devkitPro/libnds/lib\libfat.a(libfat.o)
 .debug_line    0x0000c967      0x669 c:/devkitPro/libnds/lib\libfat.a(partition.o)
 .debug_line    0x0000cfd0      0x3ef c:/devkitPro/libnds/lib\libfat.a(cache.o)
 .debug_line    0x0000d3bf      0xb41 c:/devkitPro/libnds/lib\libfat.a(directory.o)
 .debug_line    0x0000df00      0x120 c:/devkitPro/libnds/lib\libfat.a(disc.o)
 .debug_line    0x0000e020      0x61f c:/devkitPro/libnds/lib\libfat.a(fatdir.o)
 .debug_line    0x0000e63f      0x986 c:/devkitPro/libnds/lib\libfat.a(fatfile.o)
 .debug_line    0x0000efc5      0x2ee c:/devkitPro/libnds/lib\libfat.a(file_allocation_table.o)
 .debug_line    0x0000f2b3      0x178 c:/devkitPro/libnds/lib\libfat.a(filetime.o)
 .debug_line    0x0000f42b       0x82 c:/devkitPro/libnds/lib\libfat.a(lock.o)
 .debug_line    0x0000f4ad      0x2b2 c:/devkitPro/libnds/lib\libnds9.a(background.o)
 .debug_line    0x0000f75f      0x796 c:/devkitPro/libnds/lib\libnds9.a(console.o)
 .debug_line    0x0000fef5      0x2b7 c:/devkitPro/libnds/lib\libnds9.a(gurumeditation.o)
 .debug_line    0x000101ac      0x254 c:/devkitPro/libnds/lib\libnds9.a(keys.o)
 .debug_line    0x00010400      0x1a9 c:/devkitPro/libnds/lib\libnds9.a(sassert.o)
 .debug_line    0x000105a9      0x240 c:/devkitPro/libnds/lib\libnds9.a(sound.o)
 .debug_line    0x000107e9      0x22d c:/devkitPro/libnds/lib\libnds9.a(touch.o)
 .debug_line    0x00010a16      0x224 c:/devkitPro/libnds/lib\libnds9.a(trig.o)
 .debug_line    0x00010c3a      0x206 c:/devkitPro/libnds/lib\libnds9.a(video.o)
 .debug_line    0x00010e40      0x93f c:/devkitPro/libnds/lib\libnds9.a(videoGL.o)
 .debug_line    0x0001177f      0x33a c:/devkitPro/libnds/lib\libnds9.a(dldi.o)
 .debug_line    0x00011ab9      0x1d0 c:/devkitPro/libnds/lib\libnds9.a(dsi_sd.o)
 .debug_line    0x00011c89      0x36c c:/devkitPro/libnds/lib\libnds9.a(initSystem.o)
 .debug_line    0x00011ff5      0x6c8 c:/devkitPro/libnds/lib\libnds9.a(fifosystem.o)
 .debug_line    0x000126bd      0x1d0 c:/devkitPro/libnds/lib\libnds9.a(interrupts.o)
 .debug_line    0x0001288d      0x1d8 c:/devkitPro/libnds/lib\libnds9.a(libnds_exit.o)
 .debug_line    0x00012a65       0xa4 c:/devkitPro/libnds/lib\libnds9.a(dcache.o)
 .debug_line    0x00012b09       0xab c:/devkitPro/libnds/lib\libnds9.a(exceptionHandler.o)
 .debug_line    0x00012bb4       0x8d c:/devkitPro/libnds/lib\libnds9.a(dldi_stub.o)
 .debug_line    0x00012c41       0xe3 c:/devkitPro/libnds/lib\libnds9.a(mpu_setup.o)
 .debug_line    0x00012d24       0xc5 c:/devkitPro/libnds/lib\libnds9.a(biosCalls.o)
 .debug_line    0x00012de9       0x9e c:/devkitPro/libnds/lib\libnds9.a(debugprint.o)
 .debug_line    0x00012e87       0xc4 c:/devkitPro/libnds/lib\libnds9.a(interruptDispatcher.o)
 .debug_line    0x00012f4b       0x93 c:/devkitPro/libnds/lib\libnds9.a(swiSoftReset.o)
 .debug_line    0x00012fde      0x178 c:/devkitPro/libnds/lib\libnds9.a(dynamicArray.o)
 .debug_line    0x00013156      0x1a4 c:/devkitPro/libnds/lib\libnds9.a(exceptions.o)
 .debug_line    0x000132fa      0x26c c:/devkitPro/libnds/lib\libnds9.a(system.o)

.debug_frame    0x00000000     0x8eb4 load address 0x0208750c
 *(.debug_frame)
 .debug_frame   0x00000000      0x748 ds_render.o
 .debug_frame   0x00000748      0x398 glMain.o
 .debug_frame   0x00000ae0      0x4b0 template.o
 .debug_frame   0x00000f90      0x3d0 AM_MAP.o
 .debug_frame   0x00001360      0x14c CT_CHAT.o
 .debug_frame   0x000014ac      0x2f0 D_MAIN.o
 .debug_frame   0x0000179c      0x194 D_NET.o
 .debug_frame   0x00001930      0x108 F_FINALE.o
 .debug_frame   0x00001a38      0x480 G_GAME.o
 .debug_frame   0x00001eb8      0x23c IN_LUDE.o
 .debug_frame   0x000020f4      0x568 I_IBM.o
 .debug_frame   0x0000265c      0x248 I_SOUND.o
 .debug_frame   0x000028a4      0x484 MN_MENU.o
 .debug_frame   0x00002d28      0x1e4 M_MISC.o
 .debug_frame   0x00002f0c       0xd4 P_CEILNG.o
 .debug_frame   0x00002fe0       0xb4 P_DOORS.o
 .debug_frame   0x00003094      0xc28 P_ENEMY.o
 .debug_frame   0x00003cbc       0x94 P_FLOOR.o
 .debug_frame   0x00003d50      0x2d4 P_INTER.o
 .debug_frame   0x00004024      0x130 P_LIGHTS.o
 .debug_frame   0x00004154      0x330 P_MAP.o
 .debug_frame   0x00004484      0x1f0 P_MAPUTL.o
 .debug_frame   0x00004674      0x378 P_MOBJ.o
 .debug_frame   0x000049ec       0xd4 P_PLATS.o
 .debug_frame   0x00004ac0      0x75c P_PSPR.o
 .debug_frame   0x0000521c      0x1f0 P_SETUP.o
 .debug_frame   0x0000540c       0xb0 P_SIGHT.o
 .debug_frame   0x000054bc      0x2e8 P_SPEC.o
 .debug_frame   0x000057a4       0x90 P_SWITCH.o
 .debug_frame   0x00005834       0x50 P_TELEPT.o
 .debug_frame   0x00005884      0x1cc P_TICK.o
 .debug_frame   0x00005a50      0x1b8 P_USER.o
 .debug_frame   0x00005c08      0x1ac R_DATA.o
 .debug_frame   0x00005db4      0x1fc R_MAIN.o
 .debug_frame   0x00005fb0       0x70 R_THINGS.o
 .debug_frame   0x00006020      0x434 SB_BAR.o
 .debug_frame   0x00006454       0xac V_VIDEO.o
 .debug_frame   0x00006500      0x18c W_WAD.o
 .debug_frame   0x0000668c      0x150 Z_ZONE.o
 .debug_frame   0x000067dc      0x35c ds_textures.o
 .debug_frame   0x00006b38      0x2f8 geometry.o
 .debug_frame   0x00006e30      0x220 polylib.o
 .debug_frame   0x00007050      0x1dc soundst.o
 .debug_frame   0x0000722c       0xd4 c:/devkitPro/libnds/lib\libfat.a(libfat.o)
 .debug_frame   0x00007300      0x114 c:/devkitPro/libnds/lib\libfat.a(partition.o)
 .debug_frame   0x00007414      0x1c8 c:/devkitPro/libnds/lib\libfat.a(cache.o)
 .debug_frame   0x000075dc      0x268 c:/devkitPro/libnds/lib\libfat.a(directory.o)
 .debug_frame   0x00007844       0x20 c:/devkitPro/libnds/lib\libfat.a(disc.o)
 .debug_frame   0x00007864      0x180 c:/devkitPro/libnds/lib\libfat.a(fatdir.o)
 .debug_frame   0x000079e4      0x1bc c:/devkitPro/libnds/lib\libfat.a(fatfile.o)
 .debug_frame   0x00007ba0      0x118 c:/devkitPro/libnds/lib\libfat.a(file_allocation_table.o)
 .debug_frame   0x00007cb8       0x68 c:/devkitPro/libnds/lib\libfat.a(filetime.o)
 .debug_frame   0x00007d20       0x50 c:/devkitPro/libnds/lib\libfat.a(lock.o)
 .debug_frame   0x00007d70       0xb0 c:/devkitPro/libnds/lib\libnds9.a(background.o)
 .debug_frame   0x00007e20      0x1a4 c:/devkitPro/libnds/lib\libnds9.a(console.o)
 .debug_frame   0x00007fc4       0x9c c:/devkitPro/libnds/lib\libnds9.a(gurumeditation.o)
 .debug_frame   0x00008060       0x8c c:/devkitPro/libnds/lib\libnds9.a(keys.o)
 .debug_frame   0x000080ec       0x30 c:/devkitPro/libnds/lib\libnds9.a(sassert.o)
 .debug_frame   0x0000811c      0x198 c:/devkitPro/libnds/lib\libnds9.a(sound.o)
 .debug_frame   0x000082b4       0x44 c:/devkitPro/libnds/lib\libnds9.a(touch.o)
 .debug_frame   0x000082f8       0xf4 c:/devkitPro/libnds/lib\libnds9.a(trig.o)
 .debug_frame   0x000083ec       0xbc c:/devkitPro/libnds/lib\libnds9.a(video.o)
 .debug_frame   0x000084a8      0x3b4 c:/devkitPro/libnds/lib\libnds9.a(videoGL.o)
 .debug_frame   0x0000885c       0xa4 c:/devkitPro/libnds/lib\libnds9.a(dldi.o)
 .debug_frame   0x00008900       0x98 c:/devkitPro/libnds/lib\libnds9.a(dsi_sd.o)
 .debug_frame   0x00008998       0x28 c:/devkitPro/libnds/lib\libnds9.a(initSystem.o)
 .debug_frame   0x000089c0      0x2b4 c:/devkitPro/libnds/lib\libnds9.a(fifosystem.o)
 .debug_frame   0x00008c74       0xb4 c:/devkitPro/libnds/lib\libnds9.a(interrupts.o)
 .debug_frame   0x00008d28       0x38 c:/devkitPro/libnds/lib\libnds9.a(libnds_exit.o)
 .debug_frame   0x00008d60       0x78 c:/devkitPro/libnds/lib\libnds9.a(dynamicArray.o)
 .debug_frame   0x00008dd8       0x20 c:/devkitPro/libnds/lib\libnds9.a(exceptions.o)
 .debug_frame   0x00008df8       0xbc c:/devkitPro/libnds/lib\libnds9.a(system.o)

.debug_str      0x00000000    0x121ae load address 0x0208750c
 *(.debug_str)
 .debug_str     0x00000000     0x62fa ds_render.o
                               0x65d4 (size before relaxing)
 .debug_str     0x000062fa      0x1de glMain.o
                               0x5ddc (size before relaxing)
 .debug_str     0x000064d8      0xf55 template.o
                               0x1565 (size before relaxing)
 .debug_str     0x0000742d      0x9a1 AM_MAP.o
                               0x62da (size before relaxing)
 .debug_str     0x00007dce      0x781 CT_CHAT.o
                               0x5f0f (size before relaxing)
 .debug_str     0x0000854f      0x534 D_MAIN.o
                               0x6142 (size before relaxing)
 .debug_str     0x00008a83      0x2ad D_NET.o
                               0x5eee (size before relaxing)
 .debug_str     0x00008d30      0x138 F_FINALE.o
                               0x5bca (size before relaxing)
 .debug_str     0x00008e68      0x64b G_GAME.o
                               0x6b4d (size before relaxing)
 .debug_str     0x000094b3       0x38 INFO.o
                               0x58c0 (size before relaxing)
 .debug_str     0x000094eb      0x2e5 IN_LUDE.o
                               0x62e9 (size before relaxing)
 .debug_str     0x000097d0      0x4a6 I_IBM.o
                               0x5a50 (size before relaxing)
 .debug_str     0x00009c76      0x28d I_SOUND.o
                               0x53f8 (size before relaxing)
 .debug_str     0x00009f03      0x459 MN_MENU.o
                               0x678a (size before relaxing)
 .debug_str     0x0000a35c      0x2e4 M_MISC.o
                               0x6081 (size before relaxing)
 .debug_str     0x0000a640      0x14f P_CEILNG.o
                               0x5fa4 (size before relaxing)
 .debug_str     0x0000a78f       0xd9 P_DOORS.o
                               0x5e29 (size before relaxing)
 .debug_str     0x0000a868      0x7c0 P_ENEMY.o
                               0x6756 (size before relaxing)
 .debug_str     0x0000b028       0xdc P_FLOOR.o
                               0x5eb7 (size before relaxing)
 .debug_str     0x0000b104      0x2be P_INTER.o
                               0x61fb (size before relaxing)
 .debug_str     0x0000b3c2      0x135 P_LIGHTS.o
                               0x57a8 (size before relaxing)
 .debug_str     0x0000b4f7      0x3d0 P_MAP.o
                               0x62f7 (size before relaxing)
 .debug_str     0x0000b8c7      0x213 P_MAPUTL.o
                               0x5b13 (size before relaxing)
 .debug_str     0x0000bada      0x22b P_MOBJ.o
                               0x6238 (size before relaxing)
 .debug_str     0x0000bd05      0x10e P_PLATS.o
                               0x600a (size before relaxing)
 .debug_str     0x0000be13      0x41f P_PSPR.o
                               0x636e (size before relaxing)
 .debug_str     0x0000c232      0x253 P_SETUP.o
                               0x5cf1 (size before relaxing)
 .debug_str     0x0000c485       0xb9 P_SIGHT.o
                               0x5a02 (size before relaxing)
 .debug_str     0x0000c53e      0x41a P_SPEC.o
                               0x65df (size before relaxing)
 .debug_str     0x0000c958       0xcf P_SWITCH.o
                               0x6158 (size before relaxing)
 .debug_str     0x0000ca27       0x5c P_TELEPT.o
                               0x5d78 (size before relaxing)
 .debug_str     0x0000ca83      0x18d P_TICK.o
                               0x5d72 (size before relaxing)
 .debug_str     0x0000cc10      0x158 P_USER.o
                               0x6082 (size before relaxing)
 .debug_str     0x0000cd68      0x34c R_DATA.o
                               0x5e41 (size before relaxing)
 .debug_str     0x0000d0b4      0x213 R_MAIN.o
                               0x5c5d (size before relaxing)
 .debug_str     0x0000d2c7       0xd5 R_THINGS.o
                               0x52e0 (size before relaxing)
 .debug_str     0x0000d39c      0x586 SB_BAR.o
                               0x64bf (size before relaxing)
 .debug_str     0x0000d922       0x44 SOUNDS.o
                               0x57cf (size before relaxing)
 .debug_str     0x0000d966       0x36 TABLES.o
                               0x5174 (size before relaxing)
 .debug_str     0x0000d99c       0x86 V_VIDEO.o
                               0x51ff (size before relaxing)
 .debug_str     0x0000da22      0x155 W_WAD.o
                               0x53f6 (size before relaxing)
 .debug_str     0x0000db77       0xca Z_ZONE.o
                               0x5609 (size before relaxing)
 .debug_str     0x0000dc41      0x34c ds_textures.o
                               0x5c8a (size before relaxing)
 .debug_str     0x0000df8d      0x1e6 geometry.o
                               0x5c11 (size before relaxing)
 .debug_str     0x0000e173       0x9e polylib.o
                                0x532 (size before relaxing)
 .debug_str     0x0000e211      0x17f soundst.o
                               0x6298 (size before relaxing)
 .debug_str     0x0000e390      0x571 c:/devkitPro/libnds/lib\libfat.a(libfat.o)
                                0xc6e (size before relaxing)
 .debug_str     0x0000e901      0x4f8 c:/devkitPro/libnds/lib\libfat.a(partition.o)
                               0x102b (size before relaxing)
 .debug_str     0x0000edf9      0x21a c:/devkitPro/libnds/lib\libfat.a(cache.o)
                                0x503 (size before relaxing)
 .debug_str     0x0000f013      0x778 c:/devkitPro/libnds/lib\libfat.a(directory.o)
                                0xd00 (size before relaxing)
 .debug_str     0x0000f78b       0x64 c:/devkitPro/libnds/lib\libfat.a(disc.o)
                                0x243 (size before relaxing)
 .debug_str     0x0000f7ef      0x1c4 c:/devkitPro/libnds/lib\libfat.a(fatdir.o)
                                0xcc3 (size before relaxing)
 .debug_str     0x0000f9b3      0x1e7 c:/devkitPro/libnds/lib\libfat.a(fatfile.o)
                                0xd42 (size before relaxing)
 .debug_str     0x0000fb9a      0x169 c:/devkitPro/libnds/lib\libfat.a(file_allocation_table.o)
                                0x568 (size before relaxing)
 .debug_str     0x0000fd03       0xb6 c:/devkitPro/libnds/lib\libfat.a(filetime.o)
                                0x1ae (size before relaxing)
 .debug_str     0x0000fdb9       0x88 c:/devkitPro/libnds/lib\libfat.a(lock.o)
                                0x129 (size before relaxing)
 .debug_str     0x0000fe41      0x2ed c:/devkitPro/libnds/lib\libnds9.a(background.o)
                                0x67a (size before relaxing)
 .debug_str     0x0001012e      0x3be c:/devkitPro/libnds/lib\libnds9.a(console.o)
                               0x103c (size before relaxing)
 .debug_str     0x000104ec      0x124 c:/devkitPro/libnds/lib\libnds9.a(gurumeditation.o)
                                0x2bf (size before relaxing)
 .debug_str     0x00010610      0x15f c:/devkitPro/libnds/lib\libnds9.a(keys.o)
                                0x2dc (size before relaxing)
 .debug_str     0x0001076f       0x7a c:/devkitPro/libnds/lib\libnds9.a(sassert.o)
                                0x1ea (size before relaxing)
 .debug_str     0x000107e9      0x4d0 c:/devkitPro/libnds/lib\libnds9.a(sound.o)
                                0x60d (size before relaxing)
 .debug_str     0x00010cb9       0x72 c:/devkitPro/libnds/lib\libnds9.a(touch.o)
                                0x1f8 (size before relaxing)
 .debug_str     0x00010d2b       0xda c:/devkitPro/libnds/lib\libnds9.a(trig.o)
                                0x1d7 (size before relaxing)
 .debug_str     0x00010e05       0xee c:/devkitPro/libnds/lib\libnds9.a(video.o)
                                0xb12 (size before relaxing)
 .debug_str     0x00010ef3      0x4cb c:/devkitPro/libnds/lib\libnds9.a(videoGL.o)
                               0x130f (size before relaxing)
 .debug_str     0x000113be      0x1f6 c:/devkitPro/libnds/lib\libnds9.a(dldi.o)
                                0x3e2 (size before relaxing)
 .debug_str     0x000115b4      0x125 c:/devkitPro/libnds/lib\libnds9.a(dsi_sd.o)
                                0x557 (size before relaxing)
 .debug_str     0x000116d9      0x23b c:/devkitPro/libnds/lib\libnds9.a(initSystem.o)
                                0x95d (size before relaxing)
 .debug_str     0x00011914      0x508 c:/devkitPro/libnds/lib\libnds9.a(fifosystem.o)
                                0x74c (size before relaxing)
 .debug_str     0x00011e1c      0x128 c:/devkitPro/libnds/lib\libnds9.a(interrupts.o)
                                0x34a (size before relaxing)
 .debug_str     0x00011f44       0x78 c:/devkitPro/libnds/lib\libnds9.a(libnds_exit.o)
                                0x298 (size before relaxing)
 .debug_str     0x00011fbc       0xaa c:/devkitPro/libnds/lib\libnds9.a(dynamicArray.o)
                                0x18f (size before relaxing)
 .debug_str     0x00012066       0x86 c:/devkitPro/libnds/lib\libnds9.a(exceptions.o)
                                0x120 (size before relaxing)
 .debug_str     0x000120ec       0xc2 c:/devkitPro/libnds/lib\libnds9.a(system.o)
                                0x510 (size before relaxing)

.debug_loc      0x00000000    0x1964f load address 0x0208750c
 *(.debug_loc)
 .debug_loc     0x00000000      0xc42 ds_render.o
 .debug_loc     0x00000c42      0x5f6 glMain.o
 .debug_loc     0x00001238      0x7e8 template.o
 .debug_loc     0x00001a20      0x639 AM_MAP.o
 .debug_loc     0x00002059      0x224 CT_CHAT.o
 .debug_loc     0x0000227d      0x4c0 D_MAIN.o
 .debug_loc     0x0000273d      0x295 D_NET.o
 .debug_loc     0x000029d2      0x190 F_FINALE.o
 .debug_loc     0x00002b62      0x79c G_GAME.o
 .debug_loc     0x000032fe      0x3b4 IN_LUDE.o
 .debug_loc     0x000036b2      0x8e8 I_IBM.o
 .debug_loc     0x00003f9a      0x3da I_SOUND.o
 .debug_loc     0x00004374      0x780 MN_MENU.o
 .debug_loc     0x00004af4      0x32a M_MISC.o
 .debug_loc     0x00004e1e      0x150 P_CEILNG.o
 .debug_loc     0x00004f6e      0x118 P_DOORS.o
 .debug_loc     0x00005086     0x1504 P_ENEMY.o
 .debug_loc     0x0000658a       0xe0 P_FLOOR.o
 .debug_loc     0x0000666a      0x4d0 P_INTER.o
 .debug_loc     0x00006b3a      0x1f8 P_LIGHTS.o
 .debug_loc     0x00006d32      0x57d P_MAP.o
 .debug_loc     0x000072af      0x34c P_MAPUTL.o
 .debug_loc     0x000075fb      0x5e8 P_MOBJ.o
 .debug_loc     0x00007be3      0x150 P_PLATS.o
 .debug_loc     0x00007d33      0xca4 P_PSPR.o
 .debug_loc     0x000089d7      0x342 P_SETUP.o
 .debug_loc     0x00008d19      0x11a P_SIGHT.o
 .debug_loc     0x00008e33      0x4f2 P_SPEC.o
 .debug_loc     0x00009325       0xe0 P_SWITCH.o
 .debug_loc     0x00009405       0x70 P_TELEPT.o
 .debug_loc     0x00009475      0x30a P_TICK.o
 .debug_loc     0x0000977f      0x2da P_USER.o
 .debug_loc     0x00009a59      0x2d2 R_DATA.o
 .debug_loc     0x00009d2b      0x344 R_MAIN.o
 .debug_loc     0x0000a06f       0xa8 R_THINGS.o
 .debug_loc     0x0000a117      0x73a SB_BAR.o
 .debug_loc     0x0000a851      0x10c V_VIDEO.o
 .debug_loc     0x0000a95d      0x298 W_WAD.o
 .debug_loc     0x0000abf5      0x230 Z_ZONE.o
 .debug_loc     0x0000ae25      0x5af ds_textures.o
 .debug_loc     0x0000b3d4      0x4f8 geometry.o
 .debug_loc     0x0000b8cc      0x384 polylib.o
 .debug_loc     0x0000bc50      0x30e soundst.o
 .debug_loc     0x0000bf5e      0x51c c:/devkitPro/libnds/lib\libfat.a(libfat.o)
 .debug_loc     0x0000c47a      0xa52 c:/devkitPro/libnds/lib\libfat.a(partition.o)
 .debug_loc     0x0000cecc      0xe16 c:/devkitPro/libnds/lib\libfat.a(cache.o)
 .debug_loc     0x0000dce2     0x24a9 c:/devkitPro/libnds/lib\libfat.a(directory.o)
 .debug_loc     0x0001018b      0xe76 c:/devkitPro/libnds/lib\libfat.a(fatdir.o)
 .debug_loc     0x00011001     0x1fad c:/devkitPro/libnds/lib\libfat.a(fatfile.o)
 .debug_loc     0x00012fae      0x92d c:/devkitPro/libnds/lib\libfat.a(file_allocation_table.o)
 .debug_loc     0x000138db       0xaa c:/devkitPro/libnds/lib\libfat.a(filetime.o)
 .debug_loc     0x00013985      0x38a c:/devkitPro/libnds/lib\libnds9.a(background.o)
 .debug_loc     0x00013d0f      0xf0a c:/devkitPro/libnds/lib\libnds9.a(console.o)
 .debug_loc     0x00014c19      0x524 c:/devkitPro/libnds/lib\libnds9.a(gurumeditation.o)
 .debug_loc     0x0001513d       0x20 c:/devkitPro/libnds/lib\libnds9.a(keys.o)
 .debug_loc     0x0001515d       0xa4 c:/devkitPro/libnds/lib\libnds9.a(sassert.o)
 .debug_loc     0x00015201      0x4ca c:/devkitPro/libnds/lib\libnds9.a(sound.o)
 .debug_loc     0x000156cb       0x40 c:/devkitPro/libnds/lib\libnds9.a(touch.o)
 .debug_loc     0x0001570b      0x5b9 c:/devkitPro/libnds/lib\libnds9.a(trig.o)
 .debug_loc     0x00015cc4      0x211 c:/devkitPro/libnds/lib\libnds9.a(video.o)
 .debug_loc     0x00015ed5     0x1c39 c:/devkitPro/libnds/lib\libnds9.a(videoGL.o)
 .debug_loc     0x00017b0e      0x2b2 c:/devkitPro/libnds/lib\libnds9.a(dldi.o)
 .debug_loc     0x00017dc0      0x1d3 c:/devkitPro/libnds/lib\libnds9.a(dsi_sd.o)
 .debug_loc     0x00017f93       0x64 c:/devkitPro/libnds/lib\libnds9.a(initSystem.o)
 .debug_loc     0x00017ff7     0x1131 c:/devkitPro/libnds/lib\libnds9.a(fifosystem.o)
 .debug_loc     0x00019128      0x17b c:/devkitPro/libnds/lib\libnds9.a(interrupts.o)
 .debug_loc     0x000192a3       0x5c c:/devkitPro/libnds/lib\libnds9.a(libnds_exit.o)
 .debug_loc     0x000192ff      0x196 c:/devkitPro/libnds/lib\libnds9.a(dynamicArray.o)
 .debug_loc     0x00019495      0x1ba c:/devkitPro/libnds/lib\libnds9.a(system.o)

.debug_macinfo
 *(.debug_macinfo)

.debug_weaknames
 *(.debug_weaknames)

.debug_funcnames
 *(.debug_funcnames)

.debug_typenames
 *(.debug_typenames)

.debug_varnames
 *(.debug_varnames)

.stack          0x00080000        0x0 load address 0x0208750c
                0x00080000                _stack = .
 *(.stack)
LOAD c:/devkitpro/devkitarm/bin/../lib/gcc/arm-eabi/4.5.1/../../../../arm-eabi/lib/thumb/ds_arm9_crt0.o
LOAD c:/devkitpro/devkitarm/bin/../lib/gcc/arm-eabi/4.5.1/thumb/crti.o
LOAD c:/devkitpro/devkitarm/bin/../lib/gcc/arm-eabi/4.5.1/thumb/crtbegin.o
LOAD ds_render.o
LOAD glMain.o
LOAD template.o
LOAD AM_MAP.o
LOAD CT_CHAT.o
LOAD D_MAIN.o
LOAD D_NET.o
LOAD F_FINALE.o
LOAD G_GAME.o
LOAD INFO.o
LOAD IN_LUDE.o
LOAD I_IBM.o
LOAD I_SOUND.o
LOAD MN_MENU.o
LOAD M_MISC.o
LOAD P_CEILNG.o
LOAD P_DOORS.o
LOAD P_ENEMY.o
LOAD P_FLOOR.o
LOAD P_INTER.o
LOAD P_LIGHTS.o
LOAD P_MAP.o
LOAD P_MAPUTL.o
LOAD P_MOBJ.o
LOAD P_PLATS.o
LOAD P_PSPR.o
LOAD P_SETUP.o
LOAD P_SIGHT.o
LOAD P_SPEC.o
LOAD P_SWITCH.o
LOAD P_TELEPT.o
LOAD P_TICK.o
LOAD P_USER.o
LOAD R_DATA.o
LOAD R_MAIN.o
LOAD R_THINGS.o
LOAD SB_BAR.o
LOAD SOUNDS.o
LOAD TABLES.o
LOAD V_VIDEO.o
LOAD W_WAD.o
LOAD Z_ZONE.o
LOAD ds_textures.o
LOAD geometry.o
LOAD polylib.o
LOAD soundst.o
LOAD hexenarm.o
LOAD c:/devkitPro/libnds/lib\libfat.a
LOAD c:/devkitPro/libnds/lib\libnds9.a
LOAD c:/devkitpro/devkitarm/bin/../lib/gcc/arm-eabi/4.5.1/../../../../arm-eabi/lib/thumb\libm.a
START GROUP
LOAD c:/devkitpro/devkitarm/bin/../lib/gcc/arm-eabi/4.5.1/thumb\libgcc.a
LOAD c:/devkitpro/devkitarm/bin/../lib/gcc/arm-eabi/4.5.1/../../../../arm-eabi/lib/thumb\libg.a
LOAD c:/devkitpro/devkitarm/bin/../lib/gcc/arm-eabi/4.5.1/../../../../arm-eabi/lib/thumb\libc.a
LOAD c:/devkitpro/devkitarm/bin/../lib/gcc/arm-eabi/4.5.1/../../../../arm-eabi/lib/thumb\libsysbase.a
END GROUP
LOAD c:/devkitpro/devkitarm/bin/../lib/gcc/arm-eabi/4.5.1/thumb/crtend.o
LOAD c:/devkitpro/devkitarm/bin/../lib/gcc/arm-eabi/4.5.1/thumb/crtn.o
OUTPUT(c:/devl/cheretic/arm9/cheretic.arm9.elf elf32-littlearm)

.debug_pubtypes
                0x00000000     0xb17b load address 0x0208750c
 .debug_pubtypes
                0x00000000      0x493 ds_render.o
 .debug_pubtypes
                0x00000493      0x3d1 glMain.o
 .debug_pubtypes
                0x00000864      0x279 template.o
 .debug_pubtypes
                0x00000add      0x41f AM_MAP.o
 .debug_pubtypes
                0x00000efc      0x2b2 CT_CHAT.o
 .debug_pubtypes
                0x000011ae      0x3a7 D_MAIN.o
 .debug_pubtypes
                0x00001555      0x3a3 D_NET.o
 .debug_pubtypes
                0x000018f8      0x2eb F_FINALE.o
 .debug_pubtypes
                0x00001be3      0x42a G_GAME.o
 .debug_pubtypes
                0x0000200d      0x19a INFO.o
 .debug_pubtypes
                0x000021a7      0x2d2 IN_LUDE.o
 .debug_pubtypes
                0x00002479      0x241 I_IBM.o
 .debug_pubtypes
                0x000026ba      0x17c I_SOUND.o
 .debug_pubtypes
                0x00002836      0x3ce MN_MENU.o
 .debug_pubtypes
                0x00002c04      0x405 M_MISC.o
 .debug_pubtypes
                0x00003009      0x309 P_CEILNG.o
 .debug_pubtypes
                0x00003312      0x334 P_DOORS.o
 .debug_pubtypes
                0x00003646      0x336 P_ENEMY.o
 .debug_pubtypes
                0x0000397c      0x329 P_FLOOR.o
 .debug_pubtypes
                0x00003ca5      0x32c P_INTER.o
 .debug_pubtypes
                0x00003fd1      0x309 P_LIGHTS.o
 .debug_pubtypes
                0x000042da      0x31b P_MAP.o
 .debug_pubtypes
                0x000045f5      0x31e P_MAPUTL.o
 .debug_pubtypes
                0x00004913      0x309 P_MOBJ.o
 .debug_pubtypes
                0x00004c1c      0x332 P_PLATS.o
 .debug_pubtypes
                0x00004f4e      0x312 P_PSPR.o
 .debug_pubtypes
                0x00005260      0x3b2 P_SETUP.o
 .debug_pubtypes
                0x00005612      0x2fe P_SIGHT.o
 .debug_pubtypes
                0x00005910      0x3aa P_SPEC.o
 .debug_pubtypes
                0x00005cba      0x32b P_SWITCH.o
 .debug_pubtypes
                0x00005fe5      0x2ed P_TELEPT.o
 .debug_pubtypes
                0x000062d2      0x3ad P_TICK.o
 .debug_pubtypes
                0x0000667f      0x2e2 P_USER.o
 .debug_pubtypes
                0x00006961      0x3d9 R_DATA.o
 .debug_pubtypes
                0x00006d3a      0x33c R_MAIN.o
 .debug_pubtypes
                0x00007076      0x1b7 R_THINGS.o
 .debug_pubtypes
                0x0000722d      0x315 SB_BAR.o
 .debug_pubtypes
                0x00007542      0x18c SOUNDS.o
 .debug_pubtypes
                0x000076ce      0x160 TABLES.o
 .debug_pubtypes
                0x0000782e      0x175 V_VIDEO.o
 .debug_pubtypes
                0x000079a3      0x23f W_WAD.o
 .debug_pubtypes
                0x00007be2      0x269 Z_ZONE.o
 .debug_pubtypes
                0x00007e4b      0x284 ds_textures.o
 .debug_pubtypes
                0x000080cf      0x382 geometry.o
 .debug_pubtypes
                0x00008451      0x1db polylib.o
 .debug_pubtypes
                0x0000862c      0x304 soundst.o
 .debug_pubtypes
                0x00008930      0x397 c:/devkitPro/libnds/lib\libfat.a(libfat.o)
 .debug_pubtypes
                0x00008cc7      0x3a9 c:/devkitPro/libnds/lib\libfat.a(partition.o)
 .debug_pubtypes
                0x00009070      0x13a c:/devkitPro/libnds/lib\libfat.a(cache.o)
 .debug_pubtypes
                0x000091aa      0x294 c:/devkitPro/libnds/lib\libfat.a(directory.o)
 .debug_pubtypes
                0x0000943e      0x105 c:/devkitPro/libnds/lib\libfat.a(disc.o)
 .debug_pubtypes
                0x00009543      0x35a c:/devkitPro/libnds/lib\libfat.a(fatdir.o)
 .debug_pubtypes
                0x0000989d      0x366 c:/devkitPro/libnds/lib\libfat.a(fatfile.o)
 .debug_pubtypes
                0x00009c03      0x15d c:/devkitPro/libnds/lib\libfat.a(file_allocation_table.o)
 .debug_pubtypes
                0x00009d60       0x31 c:/devkitPro/libnds/lib\libfat.a(filetime.o)
 .debug_pubtypes
                0x00009d91       0x1e c:/devkitPro/libnds/lib\libfat.a(lock.o)
 .debug_pubtypes
                0x00009daf       0xfe c:/devkitPro/libnds/lib\libnds9.a(background.o)
 .debug_pubtypes
                0x00009ead      0x33b c:/devkitPro/libnds/lib\libnds9.a(console.o)
 .debug_pubtypes
                0x0000a1e8       0xb9 c:/devkitPro/libnds/lib\libnds9.a(gurumeditation.o)
 .debug_pubtypes
                0x0000a2a1       0xdd c:/devkitPro/libnds/lib\libnds9.a(keys.o)
 .debug_pubtypes
                0x0000a37e       0x92 c:/devkitPro/libnds/lib\libnds9.a(sassert.o)
 .debug_pubtypes
                0x0000a410       0xd8 c:/devkitPro/libnds/lib\libnds9.a(sound.o)
 .debug_pubtypes
                0x0000a4e8       0xc4 c:/devkitPro/libnds/lib\libnds9.a(touch.o)
 .debug_pubtypes
                0x0000a5ac       0x58 c:/devkitPro/libnds/lib\libnds9.a(trig.o)
 .debug_pubtypes
                0x0000a604       0xe4 c:/devkitPro/libnds/lib\libnds9.a(video.o)
 .debug_pubtypes
                0x0000a6e8      0x20c c:/devkitPro/libnds/lib\libnds9.a(videoGL.o)
 .debug_pubtypes
                0x0000a8f4      0x15e c:/devkitPro/libnds/lib\libnds9.a(dldi.o)
 .debug_pubtypes
                0x0000aa52      0x171 c:/devkitPro/libnds/lib\libnds9.a(dsi_sd.o)
 .debug_pubtypes
                0x0000abc3      0x1e5 c:/devkitPro/libnds/lib\libnds9.a(initSystem.o)
 .debug_pubtypes
                0x0000ada8      0x126 c:/devkitPro/libnds/lib\libnds9.a(fifosystem.o)
 .debug_pubtypes
                0x0000aece       0xaa c:/devkitPro/libnds/lib\libnds9.a(interrupts.o)
 .debug_pubtypes
                0x0000af78       0x8b c:/devkitPro/libnds/lib\libnds9.a(libnds_exit.o)
 .debug_pubtypes
                0x0000b003       0x3d c:/devkitPro/libnds/lib\libnds9.a(dynamicArray.o)
 .debug_pubtypes
                0x0000b040       0x32 c:/devkitPro/libnds/lib\libnds9.a(exceptions.o)
 .debug_pubtypes
                0x0000b072      0x109 c:/devkitPro/libnds/lib\libnds9.a(system.o)

.debug_ranges   0x00000000     0x1a68 load address 0x0208750c
 .debug_ranges  0x00000000       0x18 ds_render.o
 .debug_ranges  0x00000018       0x18 M_MISC.o
 .debug_ranges  0x00000030       0x48 c:/devkitPro/libnds/lib\libfat.a(libfat.o)
 .debug_ranges  0x00000078      0x1f0 c:/devkitPro/libnds/lib\libfat.a(partition.o)
 .debug_ranges  0x00000268       0x48 c:/devkitPro/libnds/lib\libfat.a(cache.o)
 .debug_ranges  0x000002b0      0x3a8 c:/devkitPro/libnds/lib\libfat.a(directory.o)
 .debug_ranges  0x00000658       0xd8 c:/devkitPro/libnds/lib\libfat.a(fatdir.o)
 .debug_ranges  0x00000730      0x2c8 c:/devkitPro/libnds/lib\libfat.a(fatfile.o)
 .debug_ranges  0x000009f8       0x38 c:/devkitPro/libnds/lib\libfat.a(file_allocation_table.o)
 .debug_ranges  0x00000a30       0x38 c:/devkitPro/libnds/lib\libnds9.a(background.o)
 .debug_ranges  0x00000a68      0x380 c:/devkitPro/libnds/lib\libnds9.a(console.o)
 .debug_ranges  0x00000de8       0xb0 c:/devkitPro/libnds/lib\libnds9.a(gurumeditation.o)
 .debug_ranges  0x00000e98       0x18 c:/devkitPro/libnds/lib\libnds9.a(touch.o)
 .debug_ranges  0x00000eb0       0x80 c:/devkitPro/libnds/lib\libnds9.a(trig.o)
 .debug_ranges  0x00000f30       0x30 c:/devkitPro/libnds/lib\libnds9.a(video.o)
 .debug_ranges  0x00000f60      0x730 c:/devkitPro/libnds/lib\libnds9.a(videoGL.o)
 .debug_ranges  0x00001690       0x30 c:/devkitPro/libnds/lib\libnds9.a(dldi.o)
 .debug_ranges  0x000016c0      0x378 c:/devkitPro/libnds/lib\libnds9.a(fifosystem.o)
 .debug_ranges  0x00001a38       0x30 c:/devkitPro/libnds/lib\libnds9.a(interrupts.o)
